ARM GAS  C:\Users\JANNET~1.WEH\AppData\Local\Temp\ccl8h6km.s 			page 1


   1              		.syntax unified
   2              		.cpu cortex-m3
   3              		.fpu softvfp
   4              		.eabi_attribute 20, 1
   5              		.eabi_attribute 21, 1
   6              		.eabi_attribute 23, 3
   7              		.eabi_attribute 24, 1
   8              		.eabi_attribute 25, 1
   9              		.eabi_attribute 26, 1
  10              		.eabi_attribute 30, 1
  11              		.eabi_attribute 34, 1
  12              		.eabi_attribute 18, 4
  13              		.thumb
  14              		.syntax unified
  15              		.file	"main.c"
  16              		.text
  17              	.Ltext0:
  18              		.cfi_sections	.debug_frame
  19              		.section	.text.MyInst_Start,"ax",%progbits
  20              		.align	2
  21              		.global	MyInst_Start
  22              		.thumb
  23              		.thumb_func
  24              		.type	MyInst_Start, %function
  25              	MyInst_Start:
  26              	.LFB63:
  27              		.file 1 "main.c"
   1:main.c        **** /* ========================================
   2:main.c        ****  *
   3:main.c        ****  * Copyright YOUR COMPANY, THE YEAR
   4:main.c        ****  * All Rights Reserved
   5:main.c        ****  * UNPUBLISHED, LICENSED SOFTWARE.
   6:main.c        ****  *
   7:main.c        ****  * CONFIDENTIAL AND PROPRIETARY INFORMATION
   8:main.c        ****  * WHICH IS THE PROPERTY OF your company.
   9:main.c        ****  *
  10:main.c        ****  * ========================================
  11:main.c        **** */
  12:main.c        **** #include "project.h"
  13:main.c        **** #include "math.h"
  14:main.c        **** #define EOL 0xFF
  15:main.c        **** uint16_t relays_state = 0x0000;
  16:main.c        **** uint8_t command = 0x00;
  17:main.c        **** CYBIT newCommand = 0;
  18:main.c        **** 
  19:main.c        **** uint32_t actuator_1_position = 0x00000000;
  20:main.c        **** uint32_t actuator_2_position = 0x00000000;
  21:main.c        **** uint32_t actuator_3_position = 0x00000000;
  22:main.c        **** uint32_t actuator_4_position = 0x00000000;
  23:main.c        **** uint32_t actuator_5_position = 0x00000000;
  24:main.c        **** uint32_t actuator_6_position = 0x00000000;
  25:main.c        **** uint32_t actuator_7_position = 0x00000000;
  26:main.c        **** 
  27:main.c        **** uint32_t actuator_1_home_position = 0x00000000;
  28:main.c        **** uint32_t actuator_2_home_position = 0x00000000;
  29:main.c        **** uint32_t actuator_3_home_position = 0x00000000;
  30:main.c        **** uint32_t actuator_4_home_position = 0x00000000;
ARM GAS  C:\Users\JANNET~1.WEH\AppData\Local\Temp\ccl8h6km.s 			page 2


  31:main.c        **** uint32_t actuator_5_home_position = 0x00000000;
  32:main.c        **** uint32_t actuator_6_home_position = 0x00000000;
  33:main.c        **** uint32_t actuator_7_home_position = 0x00000000;
  34:main.c        **** 
  35:main.c        **** float encoder_tick = 0.277; // mm/pulse
  36:main.c        **** 
  37:main.c        **** typedef enum {
  38:main.c        ****     OPEN_A_1,
  39:main.c        ****     OPEN_A_2,
  40:main.c        ****     OPEN_A_3,
  41:main.c        ****     OPEN_A_4,
  42:main.c        ****     OPEN_A_5,
  43:main.c        ****     OPEN_A_6,
  44:main.c        ****     OPEN_A_7,
  45:main.c        ****     CLOSE_A_1,
  46:main.c        ****     CLOSE_A_2,
  47:main.c        ****     CLOSE_A_3,
  48:main.c        ****     CLOSE_A_4,
  49:main.c        ****     CLOSE_A_5,
  50:main.c        ****     CLOSE_A_6,
  51:main.c        ****     CLOSE_A_7,
  52:main.c        ****     IDLE
  53:main.c        ****     
  54:main.c        **** } motorCommand;
  55:main.c        **** 
  56:main.c        **** void MyInst_Start(void){
  28              		.loc 1 56 0
  29              		.cfi_startproc
  30              		@ args = 0, pretend = 0, frame = 0
  31              		@ frame_needed = 0, uses_anonymous_args = 0
  32 0000 08B5     		push	{r3, lr}
  33              		.cfi_def_cfa_offset 8
  34              		.cfi_offset 3, -8
  35              		.cfi_offset 14, -4
  57:main.c        ****     // Start Encoders ** Calls Init and Enable
  58:main.c        ****     Encoder_1_Start();  
  36              		.loc 1 58 0
  37 0002 FFF7FEFF 		bl	Encoder_1_Start
  38              	.LVL0:
  59:main.c        ****     Encoder_2_Start();
  39              		.loc 1 59 0
  40 0006 FFF7FEFF 		bl	Encoder_2_Start
  41              	.LVL1:
  60:main.c        ****     Encoder_3_Start();
  42              		.loc 1 60 0
  43 000a FFF7FEFF 		bl	Encoder_3_Start
  44              	.LVL2:
  61:main.c        ****     Encoder_4_Start();
  45              		.loc 1 61 0
  46 000e FFF7FEFF 		bl	Encoder_4_Start
  47              	.LVL3:
  62:main.c        ****     Encoder_5_Start();
  48              		.loc 1 62 0
  49 0012 FFF7FEFF 		bl	Encoder_5_Start
  50              	.LVL4:
  63:main.c        ****     Encoder_6_Start();
  51              		.loc 1 63 0
ARM GAS  C:\Users\JANNET~1.WEH\AppData\Local\Temp\ccl8h6km.s 			page 3


  52 0016 FFF7FEFF 		bl	Encoder_6_Start
  53              	.LVL5:
  64:main.c        ****     Encoder_7_Start();
  54              		.loc 1 64 0
  55 001a FFF7FEFF 		bl	Encoder_7_Start
  56              	.LVL6:
  65:main.c        ****     // Start I2C ** Calls Init and Enable
  66:main.c        ****     I2C_1_Start();
  57              		.loc 1 66 0
  58 001e FFF7FEFF 		bl	I2C_1_Start
  59              	.LVL7:
  67:main.c        ****     // Start UART ** Calls Init and Enable
  68:main.c        ****     UART_1_Start();
  60              		.loc 1 68 0
  61 0022 FFF7FEFF 		bl	UART_1_Start
  62              	.LVL8:
  63 0026 08BD     		pop	{r3, pc}
  64              		.cfi_endproc
  65              	.LFE63:
  66              		.size	MyInst_Start, .-MyInst_Start
  67              		.section	.text.sendI2Cbyte,"ax",%progbits
  68              		.align	2
  69              		.global	sendI2Cbyte
  70              		.thumb
  71              		.thumb_func
  72              		.type	sendI2Cbyte, %function
  73              	sendI2Cbyte:
  74              	.LFB64:
  69:main.c        **** }
  70:main.c        **** 
  71:main.c        **** void sendI2Cbyte(uint16 rx) {
  75              		.loc 1 71 0
  76              		.cfi_startproc
  77              		@ args = 0, pretend = 0, frame = 8
  78              		@ frame_needed = 0, uses_anonymous_args = 0
  79              	.LVL9:
  80 0000 10B5     		push	{r4, lr}
  81              		.cfi_def_cfa_offset 8
  82              		.cfi_offset 4, -8
  83              		.cfi_offset 14, -4
  84 0002 82B0     		sub	sp, sp, #8
  85              		.cfi_def_cfa_offset 16
  72:main.c        ****     uint8_t rx_MSB = (uint8_t)(rx >> 8);
  86              		.loc 1 72 0
  87 0004 030A     		lsrs	r3, r0, #8
  88              	.LVL10:
  73:main.c        ****     uint8_t rx_LSB = (uint8_t)rx;
  74:main.c        ****     uint8_t rxBuff[2] = {rx_MSB, rx_LSB}; 
  89              		.loc 1 74 0
  90 0006 8DF80430 		strb	r3, [sp, #4]
  91 000a 8DF80500 		strb	r0, [sp, #5]
  75:main.c        ****     //I2C_1_MasterWriteBuf(0x25, rxBuff, 2, 0);
  76:main.c        ****     I2C_1_MasterSendStart(0x25, 0x00);
  92              		.loc 1 76 0
  93 000e 0021     		movs	r1, #0
  94 0010 2520     		movs	r0, #37
  95              	.LVL11:
ARM GAS  C:\Users\JANNET~1.WEH\AppData\Local\Temp\ccl8h6km.s 			page 4


  96 0012 FFF7FEFF 		bl	I2C_1_MasterSendStart
  97              	.LVL12:
  98              	.LBB2:
  77:main.c        ****     // Write data bytes
  78:main.c        ****     for (uint8 i = 0; i < 2; i++)
  99              		.loc 1 78 0
 100 0016 0024     		movs	r4, #0
 101 0018 07E0     		b	.L4
 102              	.LVL13:
 103              	.L5:
  79:main.c        ****     {
  80:main.c        ****         I2C_1_MasterWriteByte(rxBuff[i]);
 104              		.loc 1 80 0 discriminator 3
 105 001a 02AB     		add	r3, sp, #8
 106 001c 2344     		add	r3, r3, r4
 107 001e 13F8040C 		ldrb	r0, [r3, #-4]	@ zero_extendqisi2
 108 0022 FFF7FEFF 		bl	I2C_1_MasterWriteByte
 109              	.LVL14:
  78:main.c        ****     {
 110              		.loc 1 78 0 discriminator 3
 111 0026 0134     		adds	r4, r4, #1
 112              	.LVL15:
 113 0028 E4B2     		uxtb	r4, r4
 114              	.LVL16:
 115              	.L4:
  78:main.c        ****     {
 116              		.loc 1 78 0 is_stmt 0 discriminator 1
 117 002a 012C     		cmp	r4, #1
 118 002c F5D9     		bls	.L5
 119              	.LBE2:
  81:main.c        ****     }
  82:main.c        ****     // Send stop condition
  83:main.c        ****     I2C_1_MasterSendStop();
 120              		.loc 1 83 0 is_stmt 1
 121 002e FFF7FEFF 		bl	I2C_1_MasterSendStop
 122              	.LVL17:
  84:main.c        **** }
 123              		.loc 1 84 0
 124 0032 02B0     		add	sp, sp, #8
 125              		.cfi_def_cfa_offset 8
 126              		@ sp needed
 127 0034 10BD     		pop	{r4, pc}
 128              		.cfi_endproc
 129              	.LFE64:
 130              		.size	sendI2Cbyte, .-sendI2Cbyte
 131 0036 00BF     		.section	.text.setRelayState,"ax",%progbits
 132              		.align	2
 133              		.global	setRelayState
 134              		.thumb
 135              		.thumb_func
 136              		.type	setRelayState, %function
 137              	setRelayState:
 138              	.LFB65:
  85:main.c        **** 
  86:main.c        **** void setRelayState(uint8_t relay, CYBIT state) {
 139              		.loc 1 86 0
 140              		.cfi_startproc
ARM GAS  C:\Users\JANNET~1.WEH\AppData\Local\Temp\ccl8h6km.s 			page 5


 141              		@ args = 0, pretend = 0, frame = 0
 142              		@ frame_needed = 0, uses_anonymous_args = 0
 143              	.LVL18:
 144 0000 08B5     		push	{r3, lr}
 145              		.cfi_def_cfa_offset 8
 146              		.cfi_offset 3, -8
 147              		.cfi_offset 14, -4
 148              	.LVL19:
  87:main.c        ****     uint16_t new_state = 0x0000;
  88:main.c        ****     new_state = new_state | state;
  89:main.c        ****     new_state = new_state << relay;
 149              		.loc 1 89 0
 150 0002 01FA00F0 		lsl	r0, r1, r0
 151              	.LVL20:
 152 0006 80B2     		uxth	r0, r0
 153              	.LVL21:
  90:main.c        ****     relays_state = relays_state | new_state;
 154              		.loc 1 90 0
 155 0008 044A     		ldr	r2, .L9
 156 000a 1388     		ldrh	r3, [r2]
 157 000c 1843     		orrs	r0, r0, r3
 158              	.LVL22:
 159 000e 80B2     		uxth	r0, r0
 160 0010 1080     		strh	r0, [r2]	@ movhi
  91:main.c        ****     sendI2Cbyte(~relays_state);
 161              		.loc 1 91 0
 162 0012 C043     		mvns	r0, r0
 163 0014 80B2     		uxth	r0, r0
 164 0016 FFF7FEFF 		bl	sendI2Cbyte
 165              	.LVL23:
 166 001a 08BD     		pop	{r3, pc}
 167              	.L10:
 168              		.align	2
 169              	.L9:
 170 001c 00000000 		.word	.LANCHOR0
 171              		.cfi_endproc
 172              	.LFE65:
 173              		.size	setRelayState, .-setRelayState
 174              		.section	.text.enable_actuator,"ax",%progbits
 175              		.align	2
 176              		.global	enable_actuator
 177              		.thumb
 178              		.thumb_func
 179              		.type	enable_actuator, %function
 180              	enable_actuator:
 181              	.LFB66:
  92:main.c        **** }
  93:main.c        **** 
  94:main.c        **** void enable_actuator(uint8_t actuator){
 182              		.loc 1 94 0
 183              		.cfi_startproc
 184              		@ args = 0, pretend = 0, frame = 0
 185              		@ frame_needed = 0, uses_anonymous_args = 0
 186              	.LVL24:
 187 0000 08B5     		push	{r3, lr}
 188              		.cfi_def_cfa_offset 8
 189              		.cfi_offset 3, -8
ARM GAS  C:\Users\JANNET~1.WEH\AppData\Local\Temp\ccl8h6km.s 			page 6


 190              		.cfi_offset 14, -4
  95:main.c        ****     switch(actuator){
 191              		.loc 1 95 0
 192 0002 0628     		cmp	r0, #6
 193 0004 28D8     		bhi	.L12
 194 0006 DFE800F0 		tbb	[pc, r0]
 195              	.L14:
 196 000a 04       		.byte	(.L13-.L14)/2
 197 000b 09       		.byte	(.L15-.L14)/2
 198 000c 0E       		.byte	(.L16-.L14)/2
 199 000d 13       		.byte	(.L17-.L14)/2
 200 000e 18       		.byte	(.L18-.L14)/2
 201 000f 1D       		.byte	(.L19-.L14)/2
 202 0010 22       		.byte	(.L20-.L14)/2
 203 0011 00       		.p2align 1
 204              	.L13:
  96:main.c        ****     case 0x00:
  97:main.c        ****         setRelayState(7, 1);
 205              		.loc 1 97 0
 206 0012 0121     		movs	r1, #1
 207 0014 0720     		movs	r0, #7
 208              	.LVL25:
 209 0016 FFF7FEFF 		bl	setRelayState
 210              	.LVL26:
  98:main.c        ****         break;
 211              		.loc 1 98 0
 212 001a 08BD     		pop	{r3, pc}
 213              	.LVL27:
 214              	.L15:
  99:main.c        ****     case 0x01:
 100:main.c        ****         setRelayState(8, 1);
 215              		.loc 1 100 0
 216 001c 0121     		movs	r1, #1
 217 001e 0820     		movs	r0, #8
 218              	.LVL28:
 219 0020 FFF7FEFF 		bl	setRelayState
 220              	.LVL29:
 101:main.c        ****         break;
 221              		.loc 1 101 0
 222 0024 08BD     		pop	{r3, pc}
 223              	.LVL30:
 224              	.L16:
 102:main.c        ****     case 0x02:
 103:main.c        ****         setRelayState(9, 1);
 225              		.loc 1 103 0
 226 0026 0121     		movs	r1, #1
 227 0028 0920     		movs	r0, #9
 228              	.LVL31:
 229 002a FFF7FEFF 		bl	setRelayState
 230              	.LVL32:
 104:main.c        ****         break;
 231              		.loc 1 104 0
 232 002e 08BD     		pop	{r3, pc}
 233              	.LVL33:
 234              	.L17:
 105:main.c        ****     case 0x03:
 106:main.c        ****         setRelayState(10, 1);
ARM GAS  C:\Users\JANNET~1.WEH\AppData\Local\Temp\ccl8h6km.s 			page 7


 235              		.loc 1 106 0
 236 0030 0121     		movs	r1, #1
 237 0032 0A20     		movs	r0, #10
 238              	.LVL34:
 239 0034 FFF7FEFF 		bl	setRelayState
 240              	.LVL35:
 107:main.c        ****         break;
 241              		.loc 1 107 0
 242 0038 08BD     		pop	{r3, pc}
 243              	.LVL36:
 244              	.L18:
 108:main.c        ****     case 0x04:
 109:main.c        ****         setRelayState(11, 1);
 245              		.loc 1 109 0
 246 003a 0121     		movs	r1, #1
 247 003c 0B20     		movs	r0, #11
 248              	.LVL37:
 249 003e FFF7FEFF 		bl	setRelayState
 250              	.LVL38:
 110:main.c        ****         break;
 251              		.loc 1 110 0
 252 0042 08BD     		pop	{r3, pc}
 253              	.LVL39:
 254              	.L19:
 111:main.c        ****     case 0x05:
 112:main.c        ****         setRelayState(12, 1);
 255              		.loc 1 112 0
 256 0044 0121     		movs	r1, #1
 257 0046 0C20     		movs	r0, #12
 258              	.LVL40:
 259 0048 FFF7FEFF 		bl	setRelayState
 260              	.LVL41:
 113:main.c        ****         break;
 261              		.loc 1 113 0
 262 004c 08BD     		pop	{r3, pc}
 263              	.LVL42:
 264              	.L20:
 114:main.c        ****     case 0x06:
 115:main.c        ****         setRelayState(13, 1);
 265              		.loc 1 115 0
 266 004e 0121     		movs	r1, #1
 267 0050 0D20     		movs	r0, #13
 268              	.LVL43:
 269 0052 FFF7FEFF 		bl	setRelayState
 270              	.LVL44:
 116:main.c        ****         break;
 271              		.loc 1 116 0
 272 0056 08BD     		pop	{r3, pc}
 273              	.LVL45:
 274              	.L12:
 117:main.c        ****     default:
 118:main.c        ****         UART_1_PutChar(0x44); // send Jetson an error character
 275              		.loc 1 118 0
 276 0058 4420     		movs	r0, #68
 277              	.LVL46:
 278 005a FFF7FEFF 		bl	UART_1_PutChar
 279              	.LVL47:
ARM GAS  C:\Users\JANNET~1.WEH\AppData\Local\Temp\ccl8h6km.s 			page 8


 280 005e 08BD     		pop	{r3, pc}
 281              		.cfi_endproc
 282              	.LFE66:
 283              		.size	enable_actuator, .-enable_actuator
 284              		.section	.text.disable_actuator,"ax",%progbits
 285              		.align	2
 286              		.global	disable_actuator
 287              		.thumb
 288              		.thumb_func
 289              		.type	disable_actuator, %function
 290              	disable_actuator:
 291              	.LFB67:
 119:main.c        ****         break;
 120:main.c        ****     }
 121:main.c        **** }
 122:main.c        **** 
 123:main.c        **** void disable_actuator(uint8_t actuator){
 292              		.loc 1 123 0
 293              		.cfi_startproc
 294              		@ args = 0, pretend = 0, frame = 0
 295              		@ frame_needed = 0, uses_anonymous_args = 0
 296              	.LVL48:
 297 0000 08B5     		push	{r3, lr}
 298              		.cfi_def_cfa_offset 8
 299              		.cfi_offset 3, -8
 300              		.cfi_offset 14, -4
 124:main.c        ****     switch(actuator){
 301              		.loc 1 124 0
 302 0002 0628     		cmp	r0, #6
 303 0004 28D8     		bhi	.L24
 304 0006 DFE800F0 		tbb	[pc, r0]
 305              	.L26:
 306 000a 04       		.byte	(.L25-.L26)/2
 307 000b 09       		.byte	(.L27-.L26)/2
 308 000c 0E       		.byte	(.L28-.L26)/2
 309 000d 13       		.byte	(.L29-.L26)/2
 310 000e 18       		.byte	(.L30-.L26)/2
 311 000f 1D       		.byte	(.L31-.L26)/2
 312 0010 22       		.byte	(.L32-.L26)/2
 313 0011 00       		.p2align 1
 314              	.L25:
 125:main.c        ****     case 0x00:
 126:main.c        ****         setRelayState(7, 0);
 315              		.loc 1 126 0
 316 0012 0021     		movs	r1, #0
 317 0014 0720     		movs	r0, #7
 318              	.LVL49:
 319 0016 FFF7FEFF 		bl	setRelayState
 320              	.LVL50:
 127:main.c        ****         break;
 321              		.loc 1 127 0
 322 001a 08BD     		pop	{r3, pc}
 323              	.LVL51:
 324              	.L27:
 128:main.c        ****     case 0x01:
 129:main.c        ****         setRelayState(8, 0);
 325              		.loc 1 129 0
ARM GAS  C:\Users\JANNET~1.WEH\AppData\Local\Temp\ccl8h6km.s 			page 9


 326 001c 0021     		movs	r1, #0
 327 001e 0820     		movs	r0, #8
 328              	.LVL52:
 329 0020 FFF7FEFF 		bl	setRelayState
 330              	.LVL53:
 130:main.c        ****         break;
 331              		.loc 1 130 0
 332 0024 08BD     		pop	{r3, pc}
 333              	.LVL54:
 334              	.L28:
 131:main.c        ****     case 0x02:
 132:main.c        ****         setRelayState(9, 0);
 335              		.loc 1 132 0
 336 0026 0021     		movs	r1, #0
 337 0028 0920     		movs	r0, #9
 338              	.LVL55:
 339 002a FFF7FEFF 		bl	setRelayState
 340              	.LVL56:
 133:main.c        ****         break;
 341              		.loc 1 133 0
 342 002e 08BD     		pop	{r3, pc}
 343              	.LVL57:
 344              	.L29:
 134:main.c        ****     case 0x03:
 135:main.c        ****         setRelayState(10, 0);
 345              		.loc 1 135 0
 346 0030 0021     		movs	r1, #0
 347 0032 0A20     		movs	r0, #10
 348              	.LVL58:
 349 0034 FFF7FEFF 		bl	setRelayState
 350              	.LVL59:
 136:main.c        ****         break;
 351              		.loc 1 136 0
 352 0038 08BD     		pop	{r3, pc}
 353              	.LVL60:
 354              	.L30:
 137:main.c        ****     case 0x04:
 138:main.c        ****         setRelayState(11, 0);
 355              		.loc 1 138 0
 356 003a 0021     		movs	r1, #0
 357 003c 0B20     		movs	r0, #11
 358              	.LVL61:
 359 003e FFF7FEFF 		bl	setRelayState
 360              	.LVL62:
 139:main.c        ****         break;
 361              		.loc 1 139 0
 362 0042 08BD     		pop	{r3, pc}
 363              	.LVL63:
 364              	.L31:
 140:main.c        ****     case 0x05:
 141:main.c        ****         setRelayState(12, 0);
 365              		.loc 1 141 0
 366 0044 0021     		movs	r1, #0
 367 0046 0C20     		movs	r0, #12
 368              	.LVL64:
 369 0048 FFF7FEFF 		bl	setRelayState
 370              	.LVL65:
ARM GAS  C:\Users\JANNET~1.WEH\AppData\Local\Temp\ccl8h6km.s 			page 10


 142:main.c        ****         break;
 371              		.loc 1 142 0
 372 004c 08BD     		pop	{r3, pc}
 373              	.LVL66:
 374              	.L32:
 143:main.c        ****     case 0x06:
 144:main.c        ****         setRelayState(13, 0);
 375              		.loc 1 144 0
 376 004e 0021     		movs	r1, #0
 377 0050 0D20     		movs	r0, #13
 378              	.LVL67:
 379 0052 FFF7FEFF 		bl	setRelayState
 380              	.LVL68:
 145:main.c        ****         break;
 381              		.loc 1 145 0
 382 0056 08BD     		pop	{r3, pc}
 383              	.LVL69:
 384              	.L24:
 146:main.c        ****     default:
 147:main.c        ****         UART_1_PutChar(0x55); // send Jetson an error character
 385              		.loc 1 147 0
 386 0058 5520     		movs	r0, #85
 387              	.LVL70:
 388 005a FFF7FEFF 		bl	UART_1_PutChar
 389              	.LVL71:
 390 005e 08BD     		pop	{r3, pc}
 391              		.cfi_endproc
 392              	.LFE67:
 393              		.size	disable_actuator, .-disable_actuator
 394              		.section	.text.get_actuator_position,"ax",%progbits
 395              		.align	2
 396              		.global	get_actuator_position
 397              		.thumb
 398              		.thumb_func
 399              		.type	get_actuator_position, %function
 400              	get_actuator_position:
 401              	.LFB68:
 148:main.c        ****         break;
 149:main.c        ****     }
 150:main.c        **** }
 151:main.c        **** 
 152:main.c        **** uint32_t get_actuator_position(uint8_t actuator){
 402              		.loc 1 152 0
 403              		.cfi_startproc
 404              		@ args = 0, pretend = 0, frame = 0
 405              		@ frame_needed = 0, uses_anonymous_args = 0
 406              	.LVL72:
 407 0000 08B5     		push	{r3, lr}
 408              		.cfi_def_cfa_offset 8
 409              		.cfi_offset 3, -8
 410              		.cfi_offset 14, -4
 153:main.c        ****     switch(actuator){
 411              		.loc 1 153 0
 412 0002 0628     		cmp	r0, #6
 413 0004 1AD8     		bhi	.L36
 414 0006 DFE800F0 		tbb	[pc, r0]
 415              	.L38:
ARM GAS  C:\Users\JANNET~1.WEH\AppData\Local\Temp\ccl8h6km.s 			page 11


 416 000a 04       		.byte	(.L37-.L38)/2
 417 000b 07       		.byte	(.L39-.L38)/2
 418 000c 0A       		.byte	(.L40-.L38)/2
 419 000d 0D       		.byte	(.L41-.L38)/2
 420 000e 10       		.byte	(.L42-.L38)/2
 421 000f 13       		.byte	(.L43-.L38)/2
 422 0010 16       		.byte	(.L44-.L38)/2
 423 0011 00       		.p2align 1
 424              	.L37:
 154:main.c        ****     case 0x00:
 155:main.c        ****         return actuator_1_position;
 425              		.loc 1 155 0
 426 0012 0D4B     		ldr	r3, .L47
 427 0014 5868     		ldr	r0, [r3, #4]
 428              	.LVL73:
 429 0016 08BD     		pop	{r3, pc}
 430              	.LVL74:
 431              	.L39:
 156:main.c        ****         break;
 157:main.c        ****     case 0x01:
 158:main.c        ****         return actuator_2_position;
 432              		.loc 1 158 0
 433 0018 0B4B     		ldr	r3, .L47
 434 001a 9868     		ldr	r0, [r3, #8]
 435              	.LVL75:
 436 001c 08BD     		pop	{r3, pc}
 437              	.LVL76:
 438              	.L40:
 159:main.c        ****         break;
 160:main.c        ****     case 0x02:
 161:main.c        ****         return actuator_3_position;
 439              		.loc 1 161 0
 440 001e 0A4B     		ldr	r3, .L47
 441 0020 D868     		ldr	r0, [r3, #12]
 442              	.LVL77:
 443 0022 08BD     		pop	{r3, pc}
 444              	.LVL78:
 445              	.L41:
 162:main.c        ****         break;
 163:main.c        ****     case 0x03:
 164:main.c        ****         return actuator_4_position;
 446              		.loc 1 164 0
 447 0024 084B     		ldr	r3, .L47
 448 0026 1869     		ldr	r0, [r3, #16]
 449              	.LVL79:
 450 0028 08BD     		pop	{r3, pc}
 451              	.LVL80:
 452              	.L42:
 165:main.c        ****         break;
 166:main.c        ****     case 0x04:
 167:main.c        ****         return actuator_5_position;
 453              		.loc 1 167 0
 454 002a 074B     		ldr	r3, .L47
 455 002c 5869     		ldr	r0, [r3, #20]
 456              	.LVL81:
 457 002e 08BD     		pop	{r3, pc}
 458              	.LVL82:
ARM GAS  C:\Users\JANNET~1.WEH\AppData\Local\Temp\ccl8h6km.s 			page 12


 459              	.L43:
 168:main.c        ****         break;
 169:main.c        ****     case 0x05:
 170:main.c        ****         return actuator_6_position;
 460              		.loc 1 170 0
 461 0030 054B     		ldr	r3, .L47
 462 0032 9869     		ldr	r0, [r3, #24]
 463              	.LVL83:
 464 0034 08BD     		pop	{r3, pc}
 465              	.LVL84:
 466              	.L44:
 171:main.c        ****         break;
 172:main.c        ****     case 0x06:
 173:main.c        ****         return actuator_7_position;
 467              		.loc 1 173 0
 468 0036 044B     		ldr	r3, .L47
 469 0038 D869     		ldr	r0, [r3, #28]
 470              	.LVL85:
 471 003a 08BD     		pop	{r3, pc}
 472              	.LVL86:
 473              	.L36:
 174:main.c        ****         break;
 175:main.c        ****     default:
 176:main.c        ****         UART_1_PutChar(0xAA); // send Jetson an error character
 474              		.loc 1 176 0
 475 003c AA20     		movs	r0, #170
 476              	.LVL87:
 477 003e FFF7FEFF 		bl	UART_1_PutChar
 478              	.LVL88:
 177:main.c        ****         return 0xFFFFFFFF;
 479              		.loc 1 177 0
 480 0042 4FF0FF30 		mov	r0, #-1
 178:main.c        ****         break;
 179:main.c        ****     }
 180:main.c        **** }    
 481              		.loc 1 180 0
 482 0046 08BD     		pop	{r3, pc}
 483              	.L48:
 484              		.align	2
 485              	.L47:
 486 0048 00000000 		.word	.LANCHOR0
 487              		.cfi_endproc
 488              	.LFE68:
 489              		.size	get_actuator_position, .-get_actuator_position
 490              		.global	__aeabi_ui2f
 491              		.global	__aeabi_fmul
 492              		.section	.text.getPosition,"ax",%progbits
 493              		.align	2
 494              		.global	getPosition
 495              		.thumb
 496              		.thumb_func
 497              		.type	getPosition, %function
 498              	getPosition:
 499              	.LFB69:
 181:main.c        **** 
 182:main.c        **** float getPosition(uint32_t actuator_position_raw){
 500              		.loc 1 182 0
ARM GAS  C:\Users\JANNET~1.WEH\AppData\Local\Temp\ccl8h6km.s 			page 13


 501              		.cfi_startproc
 502              		@ args = 0, pretend = 0, frame = 0
 503              		@ frame_needed = 0, uses_anonymous_args = 0
 504              	.LVL89:
 505 0000 08B5     		push	{r3, lr}
 506              		.cfi_def_cfa_offset 8
 507              		.cfi_offset 3, -8
 508              		.cfi_offset 14, -4
 183:main.c        ****     return (actuator_position_raw * encoder_tick);
 509              		.loc 1 183 0
 510 0002 FFF7FEFF 		bl	__aeabi_ui2f
 511              	.LVL90:
 512 0006 024B     		ldr	r3, .L51
 513 0008 1968     		ldr	r1, [r3]	@ float
 514 000a FFF7FEFF 		bl	__aeabi_fmul
 515              	.LVL91:
 184:main.c        **** }
 516              		.loc 1 184 0
 517 000e 08BD     		pop	{r3, pc}
 518              	.L52:
 519              		.align	2
 520              	.L51:
 521 0010 00000000 		.word	.LANCHOR1
 522              		.cfi_endproc
 523              	.LFE69:
 524              		.size	getPosition, .-getPosition
 525              		.global	__aeabi_f2uiz
 526              		.section	.text.update_actuator_position,"ax",%progbits
 527              		.align	2
 528              		.global	update_actuator_position
 529              		.thumb
 530              		.thumb_func
 531              		.type	update_actuator_position, %function
 532              	update_actuator_position:
 533              	.LFB70:
 185:main.c        **** 
 186:main.c        **** void update_actuator_position(){
 534              		.loc 1 186 0
 535              		.cfi_startproc
 536              		@ args = 0, pretend = 0, frame = 0
 537              		@ frame_needed = 0, uses_anonymous_args = 0
 538 0000 2DE9F047 		push	{r4, r5, r6, r7, r8, r9, r10, lr}
 539              		.cfi_def_cfa_offset 32
 540              		.cfi_offset 4, -32
 541              		.cfi_offset 5, -28
 542              		.cfi_offset 6, -24
 543              		.cfi_offset 7, -20
 544              		.cfi_offset 8, -16
 545              		.cfi_offset 9, -12
 546              		.cfi_offset 10, -8
 547              		.cfi_offset 14, -4
 548              	.LVL92:
 187:main.c        ****     uint32_t actuator_1_position_raw = 0x00000000;
 188:main.c        ****     uint32_t actuator_2_position_raw = 0x00000000;
 189:main.c        ****     uint32_t actuator_3_position_raw = 0x00000000;
 190:main.c        ****     uint32_t actuator_4_position_raw = 0x00000000;
 191:main.c        ****     uint32_t actuator_5_position_raw = 0x00000000;
ARM GAS  C:\Users\JANNET~1.WEH\AppData\Local\Temp\ccl8h6km.s 			page 14


 192:main.c        ****     uint32_t actuator_6_position_raw = 0x00000000;
 193:main.c        ****     uint32_t actuator_7_position_raw = 0x00000000;
 194:main.c        ****     // Get raw encoder count
 195:main.c        ****     actuator_1_position_raw = Encoder_1_ReadCounter();
 549              		.loc 1 195 0
 550 0004 FFF7FEFF 		bl	Encoder_1_ReadCounter
 551              	.LVL93:
 552 0008 0446     		mov	r4, r0
 553              	.LVL94:
 196:main.c        ****     actuator_2_position_raw = Encoder_2_ReadCounter();
 554              		.loc 1 196 0
 555 000a FFF7FEFF 		bl	Encoder_2_ReadCounter
 556              	.LVL95:
 557 000e 8246     		mov	r10, r0
 558              	.LVL96:
 197:main.c        ****     actuator_3_position_raw = Encoder_3_ReadCounter();
 559              		.loc 1 197 0
 560 0010 FFF7FEFF 		bl	Encoder_3_ReadCounter
 561              	.LVL97:
 562 0014 8146     		mov	r9, r0
 563              	.LVL98:
 198:main.c        ****     actuator_4_position_raw = Encoder_4_ReadCounter();
 564              		.loc 1 198 0
 565 0016 FFF7FEFF 		bl	Encoder_4_ReadCounter
 566              	.LVL99:
 567 001a 8046     		mov	r8, r0
 568              	.LVL100:
 199:main.c        ****     actuator_5_position_raw = Encoder_5_ReadCounter();
 569              		.loc 1 199 0
 570 001c FFF7FEFF 		bl	Encoder_5_ReadCounter
 571              	.LVL101:
 572 0020 0746     		mov	r7, r0
 573              	.LVL102:
 200:main.c        ****     actuator_6_position_raw = Encoder_6_ReadCounter();
 574              		.loc 1 200 0
 575 0022 FFF7FEFF 		bl	Encoder_6_ReadCounter
 576              	.LVL103:
 577 0026 0646     		mov	r6, r0
 578              	.LVL104:
 201:main.c        ****      actuator_7_position_raw = Encoder_7_ReadCounter();
 579              		.loc 1 201 0
 580 0028 FFF7FEFF 		bl	Encoder_7_ReadCounter
 581              	.LVL105:
 582 002c 0546     		mov	r5, r0
 583              	.LVL106:
 202:main.c        ****     // Compute actual position in mm
 203:main.c        ****     actuator_1_position = getPosition(actuator_1_position_raw);
 584              		.loc 1 203 0
 585 002e 2046     		mov	r0, r4
 586              	.LVL107:
 587 0030 FFF7FEFF 		bl	getPosition
 588              	.LVL108:
 589 0034 144C     		ldr	r4, .L55
 590              	.LVL109:
 591 0036 FFF7FEFF 		bl	__aeabi_f2uiz
 592              	.LVL110:
 593 003a 6060     		str	r0, [r4, #4]
ARM GAS  C:\Users\JANNET~1.WEH\AppData\Local\Temp\ccl8h6km.s 			page 15


 204:main.c        ****     actuator_2_position = getPosition(actuator_2_position_raw);
 594              		.loc 1 204 0
 595 003c 5046     		mov	r0, r10
 596 003e FFF7FEFF 		bl	getPosition
 597              	.LVL111:
 598 0042 FFF7FEFF 		bl	__aeabi_f2uiz
 599              	.LVL112:
 600 0046 A060     		str	r0, [r4, #8]
 205:main.c        ****     actuator_3_position = getPosition(actuator_3_position_raw);
 601              		.loc 1 205 0
 602 0048 4846     		mov	r0, r9
 603 004a FFF7FEFF 		bl	getPosition
 604              	.LVL113:
 605 004e FFF7FEFF 		bl	__aeabi_f2uiz
 606              	.LVL114:
 607 0052 E060     		str	r0, [r4, #12]
 206:main.c        ****     actuator_4_position = getPosition(actuator_4_position_raw);
 608              		.loc 1 206 0
 609 0054 4046     		mov	r0, r8
 610 0056 FFF7FEFF 		bl	getPosition
 611              	.LVL115:
 612 005a FFF7FEFF 		bl	__aeabi_f2uiz
 613              	.LVL116:
 614 005e 2061     		str	r0, [r4, #16]
 207:main.c        ****     actuator_5_position = getPosition(actuator_5_position_raw);
 615              		.loc 1 207 0
 616 0060 3846     		mov	r0, r7
 617 0062 FFF7FEFF 		bl	getPosition
 618              	.LVL117:
 619 0066 FFF7FEFF 		bl	__aeabi_f2uiz
 620              	.LVL118:
 621 006a 6061     		str	r0, [r4, #20]
 208:main.c        ****     actuator_6_position = getPosition(actuator_6_position_raw);
 622              		.loc 1 208 0
 623 006c 3046     		mov	r0, r6
 624 006e FFF7FEFF 		bl	getPosition
 625              	.LVL119:
 626 0072 FFF7FEFF 		bl	__aeabi_f2uiz
 627              	.LVL120:
 628 0076 A061     		str	r0, [r4, #24]
 209:main.c        ****     actuator_7_position = getPosition(actuator_7_position_raw);
 629              		.loc 1 209 0
 630 0078 2846     		mov	r0, r5
 631 007a FFF7FEFF 		bl	getPosition
 632              	.LVL121:
 633 007e FFF7FEFF 		bl	__aeabi_f2uiz
 634              	.LVL122:
 635 0082 E061     		str	r0, [r4, #28]
 636 0084 BDE8F087 		pop	{r4, r5, r6, r7, r8, r9, r10, pc}
 637              	.LVL123:
 638              	.L56:
 639              		.align	2
 640              	.L55:
 641 0088 00000000 		.word	.LANCHOR0
 642              		.cfi_endproc
 643              	.LFE70:
 644              		.size	update_actuator_position, .-update_actuator_position
ARM GAS  C:\Users\JANNET~1.WEH\AppData\Local\Temp\ccl8h6km.s 			page 16


 645              		.section	.text.process_command,"ax",%progbits
 646              		.align	2
 647              		.global	process_command
 648              		.thumb
 649              		.thumb_func
 650              		.type	process_command, %function
 651              	process_command:
 652              	.LFB71:
 210:main.c        **** }
 211:main.c        **** 
 212:main.c        **** void process_command(){
 653              		.loc 1 212 0
 654              		.cfi_startproc
 655              		@ args = 0, pretend = 0, frame = 0
 656              		@ frame_needed = 0, uses_anonymous_args = 0
 657 0000 08B5     		push	{r3, lr}
 658              		.cfi_def_cfa_offset 8
 659              		.cfi_offset 3, -8
 660              		.cfi_offset 14, -4
 213:main.c        ****     if(UART_1_GetRxBufferSize() > 0)
 661              		.loc 1 213 0
 662 0002 FFF7FEFF 		bl	UART_1_GetRxBufferSize
 663              	.LVL124:
 664 0006 0028     		cmp	r0, #0
 665 0008 00F0DB80 		beq	.L57
 666              	.LBB3:
 214:main.c        ****     {
 215:main.c        ****         // Read received byte
 216:main.c        ****         uint8 rxData = UART_1_GetChar();
 667              		.loc 1 216 0
 668 000c FFF7FEFF 		bl	UART_1_GetChar
 669              	.LVL125:
 217:main.c        ****         if((rxData != EOL) && (newCommand == 0)){
 670              		.loc 1 217 0
 671 0010 FF28     		cmp	r0, #255
 672 0012 0AD0     		beq	.L59
 673              		.loc 1 217 0 is_stmt 0 discriminator 1
 674 0014 6B4B     		ldr	r3, .L100
 675 0016 93F82030 		ldrb	r3, [r3, #32]	@ zero_extendqisi2
 676 001a 33B9     		cbnz	r3, .L59
 218:main.c        ****             command = rxData;
 677              		.loc 1 218 0 is_stmt 1
 678 001c 694B     		ldr	r3, .L100
 679 001e 83F82100 		strb	r0, [r3, #33]
 219:main.c        ****             newCommand = 1;
 680              		.loc 1 219 0
 681 0022 0122     		movs	r2, #1
 682 0024 83F82020 		strb	r2, [r3, #32]
 683 0028 08BD     		pop	{r3, pc}
 684              	.L59:
 220:main.c        ****         }
 221:main.c        ****         else if((newCommand == 1) && (rxData == 0xFF)){
 685              		.loc 1 221 0
 686 002a 664B     		ldr	r3, .L100
 687 002c 93F82030 		ldrb	r3, [r3, #32]	@ zero_extendqisi2
 688 0030 012B     		cmp	r3, #1
 689 0032 40F0BF80 		bne	.L60
ARM GAS  C:\Users\JANNET~1.WEH\AppData\Local\Temp\ccl8h6km.s 			page 17


 690              		.loc 1 221 0 is_stmt 0 discriminator 1
 691 0036 FF28     		cmp	r0, #255
 692 0038 40F0BC80 		bne	.L60
 222:main.c        ****             switch(command){
 693              		.loc 1 222 0 is_stmt 1
 694 003c 614B     		ldr	r3, .L100
 695 003e 93F82130 		ldrb	r3, [r3, #33]	@ zero_extendqisi2
 696 0042 222B     		cmp	r3, #34
 697 0044 00F2AE80 		bhi	.L61
 698 0048 DFE803F0 		tbb	[pc, r3]
 699              	.L63:
 700 004c 12       		.byte	(.L62-.L63)/2
 701 004d 17       		.byte	(.L64-.L63)/2
 702 004e 1C       		.byte	(.L65-.L63)/2
 703 004f 21       		.byte	(.L66-.L63)/2
 704 0050 26       		.byte	(.L67-.L63)/2
 705 0051 2B       		.byte	(.L68-.L63)/2
 706 0052 30       		.byte	(.L69-.L63)/2
 707 0053 35       		.byte	(.L70-.L63)/2
 708 0054 3A       		.byte	(.L71-.L63)/2
 709 0055 3F       		.byte	(.L72-.L63)/2
 710 0056 44       		.byte	(.L73-.L63)/2
 711 0057 49       		.byte	(.L74-.L63)/2
 712 0058 4E       		.byte	(.L75-.L63)/2
 713 0059 53       		.byte	(.L76-.L63)/2
 714 005a 58       		.byte	(.L77-.L63)/2
 715 005b 5C       		.byte	(.L78-.L63)/2
 716 005c 60       		.byte	(.L79-.L63)/2
 717 005d 64       		.byte	(.L80-.L63)/2
 718 005e 68       		.byte	(.L81-.L63)/2
 719 005f 6C       		.byte	(.L82-.L63)/2
 720 0060 70       		.byte	(.L83-.L63)/2
 721 0061 74       		.byte	(.L84-.L63)/2
 722 0062 78       		.byte	(.L85-.L63)/2
 723 0063 7C       		.byte	(.L86-.L63)/2
 724 0064 80       		.byte	(.L87-.L63)/2
 725 0065 84       		.byte	(.L88-.L63)/2
 726 0066 88       		.byte	(.L89-.L63)/2
 727 0067 8C       		.byte	(.L90-.L63)/2
 728 0068 90       		.byte	(.L91-.L63)/2
 729 0069 94       		.byte	(.L92-.L63)/2
 730 006a 98       		.byte	(.L93-.L63)/2
 731 006b 9C       		.byte	(.L94-.L63)/2
 732 006c A0       		.byte	(.L95-.L63)/2
 733 006d A4       		.byte	(.L96-.L63)/2
 734 006e A8       		.byte	(.L97-.L63)/2
 735 006f 00       		.p2align 1
 736              	.L62:
 223:main.c        ****                 case 0x00:
 224:main.c        ****                     setRelayState(0, 1);
 737              		.loc 1 224 0
 738 0070 0121     		movs	r1, #1
 739 0072 0020     		movs	r0, #0
 740              	.LVL126:
 741 0074 FFF7FEFF 		bl	setRelayState
 742              	.LVL127:
 225:main.c        ****                     break;
ARM GAS  C:\Users\JANNET~1.WEH\AppData\Local\Temp\ccl8h6km.s 			page 18


 743              		.loc 1 225 0
 744 0078 97E0     		b	.L98
 745              	.LVL128:
 746              	.L64:
 226:main.c        ****                 case 0x01:
 227:main.c        ****                     setRelayState(1, 1);
 747              		.loc 1 227 0
 748 007a 0121     		movs	r1, #1
 749 007c 0846     		mov	r0, r1
 750              	.LVL129:
 751 007e FFF7FEFF 		bl	setRelayState
 752              	.LVL130:
 228:main.c        ****                     break;
 753              		.loc 1 228 0
 754 0082 92E0     		b	.L98
 755              	.LVL131:
 756              	.L65:
 229:main.c        ****                 case 0x02:
 230:main.c        ****                     setRelayState(2, 1);
 757              		.loc 1 230 0
 758 0084 0121     		movs	r1, #1
 759 0086 0220     		movs	r0, #2
 760              	.LVL132:
 761 0088 FFF7FEFF 		bl	setRelayState
 762              	.LVL133:
 231:main.c        ****                     break;
 763              		.loc 1 231 0
 764 008c 8DE0     		b	.L98
 765              	.LVL134:
 766              	.L66:
 232:main.c        ****                 case 0x03:
 233:main.c        ****                     setRelayState(3, 1);
 767              		.loc 1 233 0
 768 008e 0121     		movs	r1, #1
 769 0090 0320     		movs	r0, #3
 770              	.LVL135:
 771 0092 FFF7FEFF 		bl	setRelayState
 772              	.LVL136:
 234:main.c        ****                     break;
 773              		.loc 1 234 0
 774 0096 88E0     		b	.L98
 775              	.LVL137:
 776              	.L67:
 235:main.c        ****                 case 0x04:
 236:main.c        ****                     setRelayState(4, 1);
 777              		.loc 1 236 0
 778 0098 0121     		movs	r1, #1
 779 009a 0420     		movs	r0, #4
 780              	.LVL138:
 781 009c FFF7FEFF 		bl	setRelayState
 782              	.LVL139:
 237:main.c        ****                     break;
 783              		.loc 1 237 0
 784 00a0 83E0     		b	.L98
 785              	.LVL140:
 786              	.L68:
 238:main.c        ****                 case 0x05:
ARM GAS  C:\Users\JANNET~1.WEH\AppData\Local\Temp\ccl8h6km.s 			page 19


 239:main.c        ****                     setRelayState(5, 1);
 787              		.loc 1 239 0
 788 00a2 0121     		movs	r1, #1
 789 00a4 0520     		movs	r0, #5
 790              	.LVL141:
 791 00a6 FFF7FEFF 		bl	setRelayState
 792              	.LVL142:
 240:main.c        ****                     break;
 793              		.loc 1 240 0
 794 00aa 7EE0     		b	.L98
 795              	.LVL143:
 796              	.L69:
 241:main.c        ****                 case 0x06:
 242:main.c        ****                     setRelayState(6, 1);
 797              		.loc 1 242 0
 798 00ac 0121     		movs	r1, #1
 799 00ae 0620     		movs	r0, #6
 800              	.LVL144:
 801 00b0 FFF7FEFF 		bl	setRelayState
 802              	.LVL145:
 243:main.c        ****                     break;
 803              		.loc 1 243 0
 804 00b4 79E0     		b	.L98
 805              	.LVL146:
 806              	.L70:
 244:main.c        ****                 case 0x07:
 245:main.c        ****                     setRelayState(0, 0);
 807              		.loc 1 245 0
 808 00b6 0021     		movs	r1, #0
 809 00b8 0846     		mov	r0, r1
 810              	.LVL147:
 811 00ba FFF7FEFF 		bl	setRelayState
 812              	.LVL148:
 246:main.c        ****                     break;
 813              		.loc 1 246 0
 814 00be 74E0     		b	.L98
 815              	.LVL149:
 816              	.L71:
 247:main.c        ****                 case 0x08:
 248:main.c        ****                     setRelayState(1, 0);
 817              		.loc 1 248 0
 818 00c0 0021     		movs	r1, #0
 819 00c2 0120     		movs	r0, #1
 820              	.LVL150:
 821 00c4 FFF7FEFF 		bl	setRelayState
 822              	.LVL151:
 249:main.c        ****                     break;
 823              		.loc 1 249 0
 824 00c8 6FE0     		b	.L98
 825              	.LVL152:
 826              	.L72:
 250:main.c        ****                 case 0x09:
 251:main.c        ****                     setRelayState(2, 0);
 827              		.loc 1 251 0
 828 00ca 0021     		movs	r1, #0
 829 00cc 0220     		movs	r0, #2
 830              	.LVL153:
ARM GAS  C:\Users\JANNET~1.WEH\AppData\Local\Temp\ccl8h6km.s 			page 20


 831 00ce FFF7FEFF 		bl	setRelayState
 832              	.LVL154:
 252:main.c        ****                     break;
 833              		.loc 1 252 0
 834 00d2 6AE0     		b	.L98
 835              	.LVL155:
 836              	.L73:
 253:main.c        ****                 case 0x0A:
 254:main.c        ****                     setRelayState(3, 0);
 837              		.loc 1 254 0
 838 00d4 0021     		movs	r1, #0
 839 00d6 0320     		movs	r0, #3
 840              	.LVL156:
 841 00d8 FFF7FEFF 		bl	setRelayState
 842              	.LVL157:
 255:main.c        ****                     break;
 843              		.loc 1 255 0
 844 00dc 65E0     		b	.L98
 845              	.LVL158:
 846              	.L74:
 256:main.c        ****                 case 0x0B:
 257:main.c        ****                     setRelayState(4, 0);
 847              		.loc 1 257 0
 848 00de 0021     		movs	r1, #0
 849 00e0 0420     		movs	r0, #4
 850              	.LVL159:
 851 00e2 FFF7FEFF 		bl	setRelayState
 852              	.LVL160:
 258:main.c        ****                     break;
 853              		.loc 1 258 0
 854 00e6 60E0     		b	.L98
 855              	.LVL161:
 856              	.L75:
 259:main.c        ****                 case 0x0C:
 260:main.c        ****                     setRelayState(5, 0);
 857              		.loc 1 260 0
 858 00e8 0021     		movs	r1, #0
 859 00ea 0520     		movs	r0, #5
 860              	.LVL162:
 861 00ec FFF7FEFF 		bl	setRelayState
 862              	.LVL163:
 261:main.c        ****                     break;
 863              		.loc 1 261 0
 864 00f0 5BE0     		b	.L98
 865              	.LVL164:
 866              	.L76:
 262:main.c        ****                 case 0x0D:
 263:main.c        ****                     setRelayState(6, 0);
 867              		.loc 1 263 0
 868 00f2 0021     		movs	r1, #0
 869 00f4 0620     		movs	r0, #6
 870              	.LVL165:
 871 00f6 FFF7FEFF 		bl	setRelayState
 872              	.LVL166:
 264:main.c        ****                     break;
 873              		.loc 1 264 0
 874 00fa 56E0     		b	.L98
ARM GAS  C:\Users\JANNET~1.WEH\AppData\Local\Temp\ccl8h6km.s 			page 21


 875              	.LVL167:
 876              	.L77:
 265:main.c        ****                 case 0x0E:
 266:main.c        ****                     enable_actuator(0x00);
 877              		.loc 1 266 0
 878 00fc 0020     		movs	r0, #0
 879              	.LVL168:
 880 00fe FFF7FEFF 		bl	enable_actuator
 881              	.LVL169:
 267:main.c        ****                     break;
 882              		.loc 1 267 0
 883 0102 52E0     		b	.L98
 884              	.LVL170:
 885              	.L78:
 268:main.c        ****                 case 0x0F:
 269:main.c        ****                     enable_actuator(0x01);
 886              		.loc 1 269 0
 887 0104 0120     		movs	r0, #1
 888              	.LVL171:
 889 0106 FFF7FEFF 		bl	enable_actuator
 890              	.LVL172:
 270:main.c        ****                     break;
 891              		.loc 1 270 0
 892 010a 4EE0     		b	.L98
 893              	.LVL173:
 894              	.L79:
 271:main.c        ****                 case 0x10:
 272:main.c        ****                     enable_actuator(0x02);
 895              		.loc 1 272 0
 896 010c 0220     		movs	r0, #2
 897              	.LVL174:
 898 010e FFF7FEFF 		bl	enable_actuator
 899              	.LVL175:
 273:main.c        ****                     break;
 900              		.loc 1 273 0
 901 0112 4AE0     		b	.L98
 902              	.LVL176:
 903              	.L80:
 274:main.c        ****                 case 0x11:
 275:main.c        ****                     enable_actuator(0x03);
 904              		.loc 1 275 0
 905 0114 0320     		movs	r0, #3
 906              	.LVL177:
 907 0116 FFF7FEFF 		bl	enable_actuator
 908              	.LVL178:
 276:main.c        ****                     break;
 909              		.loc 1 276 0
 910 011a 46E0     		b	.L98
 911              	.LVL179:
 912              	.L81:
 277:main.c        ****                 case 0x12:
 278:main.c        ****                     enable_actuator(0x04);
 913              		.loc 1 278 0
 914 011c 0420     		movs	r0, #4
 915              	.LVL180:
 916 011e FFF7FEFF 		bl	enable_actuator
 917              	.LVL181:
ARM GAS  C:\Users\JANNET~1.WEH\AppData\Local\Temp\ccl8h6km.s 			page 22


 279:main.c        ****                     break;
 918              		.loc 1 279 0
 919 0122 42E0     		b	.L98
 920              	.LVL182:
 921              	.L82:
 280:main.c        ****                 case 0x13:
 281:main.c        ****                     enable_actuator(0x05);
 922              		.loc 1 281 0
 923 0124 0520     		movs	r0, #5
 924              	.LVL183:
 925 0126 FFF7FEFF 		bl	enable_actuator
 926              	.LVL184:
 282:main.c        ****                     break;
 927              		.loc 1 282 0
 928 012a 3EE0     		b	.L98
 929              	.LVL185:
 930              	.L83:
 283:main.c        ****                 case 0x14:
 284:main.c        ****                     enable_actuator(0x06);
 931              		.loc 1 284 0
 932 012c 0620     		movs	r0, #6
 933              	.LVL186:
 934 012e FFF7FEFF 		bl	enable_actuator
 935              	.LVL187:
 285:main.c        ****                     break;
 936              		.loc 1 285 0
 937 0132 3AE0     		b	.L98
 938              	.LVL188:
 939              	.L84:
 286:main.c        ****                 case 0x15:
 287:main.c        ****                     disable_actuator(0x00);
 940              		.loc 1 287 0
 941 0134 0020     		movs	r0, #0
 942              	.LVL189:
 943 0136 FFF7FEFF 		bl	disable_actuator
 944              	.LVL190:
 288:main.c        ****                     break;
 945              		.loc 1 288 0
 946 013a 36E0     		b	.L98
 947              	.LVL191:
 948              	.L85:
 289:main.c        ****                 case 0x16:
 290:main.c        ****                     disable_actuator(0x01);
 949              		.loc 1 290 0
 950 013c 0120     		movs	r0, #1
 951              	.LVL192:
 952 013e FFF7FEFF 		bl	disable_actuator
 953              	.LVL193:
 291:main.c        ****                     break;
 954              		.loc 1 291 0
 955 0142 32E0     		b	.L98
 956              	.LVL194:
 957              	.L86:
 292:main.c        ****                 case 0x17:
 293:main.c        ****                     disable_actuator(0x02);
 958              		.loc 1 293 0
 959 0144 0220     		movs	r0, #2
ARM GAS  C:\Users\JANNET~1.WEH\AppData\Local\Temp\ccl8h6km.s 			page 23


 960              	.LVL195:
 961 0146 FFF7FEFF 		bl	disable_actuator
 962              	.LVL196:
 294:main.c        ****                     break;
 963              		.loc 1 294 0
 964 014a 2EE0     		b	.L98
 965              	.LVL197:
 966              	.L87:
 295:main.c        ****                 case 0x18:
 296:main.c        ****                     disable_actuator(0x03);
 967              		.loc 1 296 0
 968 014c 0320     		movs	r0, #3
 969              	.LVL198:
 970 014e FFF7FEFF 		bl	disable_actuator
 971              	.LVL199:
 297:main.c        ****                     break;
 972              		.loc 1 297 0
 973 0152 2AE0     		b	.L98
 974              	.LVL200:
 975              	.L88:
 298:main.c        ****                 case 0x19:
 299:main.c        ****                     disable_actuator(0x04);
 976              		.loc 1 299 0
 977 0154 0420     		movs	r0, #4
 978              	.LVL201:
 979 0156 FFF7FEFF 		bl	disable_actuator
 980              	.LVL202:
 300:main.c        ****                     break;
 981              		.loc 1 300 0
 982 015a 26E0     		b	.L98
 983              	.LVL203:
 984              	.L89:
 301:main.c        ****                 case 0x1A:
 302:main.c        ****                     disable_actuator(0x05);
 985              		.loc 1 302 0
 986 015c 0520     		movs	r0, #5
 987              	.LVL204:
 988 015e FFF7FEFF 		bl	disable_actuator
 989              	.LVL205:
 303:main.c        ****                     break;
 990              		.loc 1 303 0
 991 0162 22E0     		b	.L98
 992              	.LVL206:
 993              	.L90:
 304:main.c        ****                 case 0x1B:
 305:main.c        ****                     disable_actuator(0x06);
 994              		.loc 1 305 0
 995 0164 0620     		movs	r0, #6
 996              	.LVL207:
 997 0166 FFF7FEFF 		bl	disable_actuator
 998              	.LVL208:
 306:main.c        ****                     break;
 999              		.loc 1 306 0
 1000 016a 1EE0     		b	.L98
 1001              	.LVL209:
 1002              	.L91:
 307:main.c        ****                 case 0x1C:
ARM GAS  C:\Users\JANNET~1.WEH\AppData\Local\Temp\ccl8h6km.s 			page 24


 308:main.c        ****                     get_actuator_position(0x00);
 1003              		.loc 1 308 0
 1004 016c 0020     		movs	r0, #0
 1005              	.LVL210:
 1006 016e FFF7FEFF 		bl	get_actuator_position
 1007              	.LVL211:
 309:main.c        ****                     break;
 1008              		.loc 1 309 0
 1009 0172 1AE0     		b	.L98
 1010              	.LVL212:
 1011              	.L92:
 310:main.c        ****                 case 0x1D:
 311:main.c        ****                     get_actuator_position(0x01);
 1012              		.loc 1 311 0
 1013 0174 0120     		movs	r0, #1
 1014              	.LVL213:
 1015 0176 FFF7FEFF 		bl	get_actuator_position
 1016              	.LVL214:
 312:main.c        ****                     break;
 1017              		.loc 1 312 0
 1018 017a 16E0     		b	.L98
 1019              	.LVL215:
 1020              	.L93:
 313:main.c        ****                 case 0x1E:
 314:main.c        ****                     get_actuator_position(0x02);
 1021              		.loc 1 314 0
 1022 017c 0220     		movs	r0, #2
 1023              	.LVL216:
 1024 017e FFF7FEFF 		bl	get_actuator_position
 1025              	.LVL217:
 315:main.c        ****                     break;
 1026              		.loc 1 315 0
 1027 0182 12E0     		b	.L98
 1028              	.LVL218:
 1029              	.L94:
 316:main.c        ****                 case 0x1F:
 317:main.c        ****                     get_actuator_position(0x03);
 1030              		.loc 1 317 0
 1031 0184 0320     		movs	r0, #3
 1032              	.LVL219:
 1033 0186 FFF7FEFF 		bl	get_actuator_position
 1034              	.LVL220:
 318:main.c        ****                     break;
 1035              		.loc 1 318 0
 1036 018a 0EE0     		b	.L98
 1037              	.LVL221:
 1038              	.L95:
 319:main.c        ****                 case 0x20:
 320:main.c        ****                     get_actuator_position(0x04);
 1039              		.loc 1 320 0
 1040 018c 0420     		movs	r0, #4
 1041              	.LVL222:
 1042 018e FFF7FEFF 		bl	get_actuator_position
 1043              	.LVL223:
 321:main.c        ****                     break;
 1044              		.loc 1 321 0
 1045 0192 0AE0     		b	.L98
ARM GAS  C:\Users\JANNET~1.WEH\AppData\Local\Temp\ccl8h6km.s 			page 25


 1046              	.LVL224:
 1047              	.L96:
 322:main.c        ****                 case 0x21:
 323:main.c        ****                     get_actuator_position(0x05);
 1048              		.loc 1 323 0
 1049 0194 0520     		movs	r0, #5
 1050              	.LVL225:
 1051 0196 FFF7FEFF 		bl	get_actuator_position
 1052              	.LVL226:
 324:main.c        ****                     break;
 1053              		.loc 1 324 0
 1054 019a 06E0     		b	.L98
 1055              	.LVL227:
 1056              	.L97:
 325:main.c        ****                 case 0x22:
 326:main.c        ****                     get_actuator_position(0x06);
 1057              		.loc 1 326 0
 1058 019c 0620     		movs	r0, #6
 1059              	.LVL228:
 1060 019e FFF7FEFF 		bl	get_actuator_position
 1061              	.LVL229:
 327:main.c        ****                     break;
 1062              		.loc 1 327 0
 1063 01a2 02E0     		b	.L98
 1064              	.LVL230:
 1065              	.L61:
 328:main.c        ****                 default:
 329:main.c        ****                     UART_1_PutChar(0xDD); // send Jetson an error character
 1066              		.loc 1 329 0
 1067 01a4 DD20     		movs	r0, #221
 1068              	.LVL231:
 1069 01a6 FFF7FEFF 		bl	UART_1_PutChar
 1070              	.LVL232:
 1071              	.L98:
 330:main.c        ****                     break;
 331:main.c        ****             }
 332:main.c        ****             newCommand = 0; 
 1072              		.loc 1 332 0
 1073 01aa 0022     		movs	r2, #0
 1074 01ac 054B     		ldr	r3, .L100
 1075 01ae 83F82020 		strb	r2, [r3, #32]
 1076 01b2 08BD     		pop	{r3, pc}
 1077              	.LVL233:
 1078              	.L60:
 333:main.c        ****         }
 334:main.c        ****         else{
 335:main.c        ****             newCommand = 0; 
 1079              		.loc 1 335 0
 1080 01b4 0022     		movs	r2, #0
 1081 01b6 034B     		ldr	r3, .L100
 1082 01b8 83F82020 		strb	r2, [r3, #32]
 336:main.c        ****             UART_1_PutChar(0xEE); // send Jetson an error character
 1083              		.loc 1 336 0
 1084 01bc EE20     		movs	r0, #238
 1085              	.LVL234:
 1086 01be FFF7FEFF 		bl	UART_1_PutChar
 1087              	.LVL235:
ARM GAS  C:\Users\JANNET~1.WEH\AppData\Local\Temp\ccl8h6km.s 			page 26


 1088              	.L57:
 1089 01c2 08BD     		pop	{r3, pc}
 1090              	.L101:
 1091              		.align	2
 1092              	.L100:
 1093 01c4 00000000 		.word	.LANCHOR0
 1094              	.LBE3:
 1095              		.cfi_endproc
 1096              	.LFE71:
 1097              		.size	process_command, .-process_command
 1098              		.global	__aeabi_fsub
 1099              		.global	__aeabi_fadd
 1100              		.global	__aeabi_fcmplt
 1101              		.section	.text.go_to_home,"ax",%progbits
 1102              		.align	2
 1103              		.global	go_to_home
 1104              		.thumb
 1105              		.thumb_func
 1106              		.type	go_to_home, %function
 1107              	go_to_home:
 1108              	.LFB72:
 337:main.c        ****         }
 338:main.c        ****     }
 339:main.c        **** }
 340:main.c        **** 
 341:main.c        **** void go_to_home(void){
 1109              		.loc 1 341 0
 1110              		.cfi_startproc
 1111              		@ args = 0, pretend = 0, frame = 32
 1112              		@ frame_needed = 0, uses_anonymous_args = 0
 1113 0000 2DE9F04F 		push	{r4, r5, r6, r7, r8, r9, r10, fp, lr}
 1114              		.cfi_def_cfa_offset 36
 1115              		.cfi_offset 4, -36
 1116              		.cfi_offset 5, -32
 1117              		.cfi_offset 6, -28
 1118              		.cfi_offset 7, -24
 1119              		.cfi_offset 8, -20
 1120              		.cfi_offset 9, -16
 1121              		.cfi_offset 10, -12
 1122              		.cfi_offset 11, -8
 1123              		.cfi_offset 14, -4
 1124 0004 89B0     		sub	sp, sp, #36
 1125              		.cfi_def_cfa_offset 72
 342:main.c        ****     // TODO: Set relays to retract all actuators for X amount of time OR read position and stop whe
 343:main.c        ****     update_actuator_position();
 1126              		.loc 1 343 0
 1127 0006 FFF7FEFF 		bl	update_actuator_position
 1128              	.LVL236:
 344:main.c        ****     float actuator_1_last_position = get_actuator_position(0x00);
 1129              		.loc 1 344 0
 1130 000a 0020     		movs	r0, #0
 1131 000c FFF7FEFF 		bl	get_actuator_position
 1132              	.LVL237:
 1133 0010 FFF7FEFF 		bl	__aeabi_ui2f
 1134              	.LVL238:
 1135 0014 0446     		mov	r4, r0
 1136              	.LVL239:
ARM GAS  C:\Users\JANNET~1.WEH\AppData\Local\Temp\ccl8h6km.s 			page 27


 345:main.c        ****     float actuator_2_last_position = get_actuator_position(0x01);
 1137              		.loc 1 345 0
 1138 0016 0120     		movs	r0, #1
 1139              	.LVL240:
 1140 0018 FFF7FEFF 		bl	get_actuator_position
 1141              	.LVL241:
 1142 001c FFF7FEFF 		bl	__aeabi_ui2f
 1143              	.LVL242:
 1144 0020 0190     		str	r0, [sp, #4]	@ float
 1145              	.LVL243:
 346:main.c        ****     float actuator_3_last_position = get_actuator_position(0x02);
 1146              		.loc 1 346 0
 1147 0022 0220     		movs	r0, #2
 1148              	.LVL244:
 1149 0024 FFF7FEFF 		bl	get_actuator_position
 1150              	.LVL245:
 1151 0028 FFF7FEFF 		bl	__aeabi_ui2f
 1152              	.LVL246:
 1153 002c 0290     		str	r0, [sp, #8]	@ float
 1154              	.LVL247:
 347:main.c        ****     float actuator_4_last_position = get_actuator_position(0x03);
 1155              		.loc 1 347 0
 1156 002e 0320     		movs	r0, #3
 1157              	.LVL248:
 1158 0030 FFF7FEFF 		bl	get_actuator_position
 1159              	.LVL249:
 1160 0034 FFF7FEFF 		bl	__aeabi_ui2f
 1161              	.LVL250:
 1162 0038 0390     		str	r0, [sp, #12]	@ float
 1163              	.LVL251:
 348:main.c        ****     float actuator_5_last_position = get_actuator_position(0x04);
 1164              		.loc 1 348 0
 1165 003a 0420     		movs	r0, #4
 1166              	.LVL252:
 1167 003c FFF7FEFF 		bl	get_actuator_position
 1168              	.LVL253:
 1169 0040 FFF7FEFF 		bl	__aeabi_ui2f
 1170              	.LVL254:
 1171 0044 0490     		str	r0, [sp, #16]	@ float
 1172              	.LVL255:
 349:main.c        ****     float actuator_6_last_position = get_actuator_position(0x05);
 1173              		.loc 1 349 0
 1174 0046 0520     		movs	r0, #5
 1175              	.LVL256:
 1176 0048 FFF7FEFF 		bl	get_actuator_position
 1177              	.LVL257:
 1178 004c FFF7FEFF 		bl	__aeabi_ui2f
 1179              	.LVL258:
 1180 0050 0590     		str	r0, [sp, #20]	@ float
 1181              	.LVL259:
 350:main.c        ****     float actuator_7_last_position = get_actuator_position(0x06);
 1182              		.loc 1 350 0
 1183 0052 0620     		movs	r0, #6
 1184              	.LVL260:
 1185 0054 FFF7FEFF 		bl	get_actuator_position
 1186              	.LVL261:
 1187 0058 FFF7FEFF 		bl	__aeabi_ui2f
ARM GAS  C:\Users\JANNET~1.WEH\AppData\Local\Temp\ccl8h6km.s 			page 28


 1188              	.LVL262:
 1189 005c 0690     		str	r0, [sp, #24]	@ float
 1190              	.LVL263:
 351:main.c        ****     
 352:main.c        ****     CYBIT actuator_1_state = 0;
 353:main.c        ****     CYBIT actuator_2_state = 0;
 354:main.c        ****     CYBIT actuator_3_state = 0;
 355:main.c        ****     CYBIT actuator_4_state = 0;
 356:main.c        ****     CYBIT actuator_5_state = 0;
 357:main.c        ****     CYBIT actuator_6_state = 0;
 358:main.c        ****     CYBIT actuator_7_state = 0;
 359:main.c        ****     // Set the relays to retract
 360:main.c        ****     
 361:main.c        ****     // Enable relays
 362:main.c        ****     enable_actuator(0);
 1191              		.loc 1 362 0
 1192 005e 0020     		movs	r0, #0
 1193              	.LVL264:
 1194 0060 FFF7FEFF 		bl	enable_actuator
 1195              	.LVL265:
 363:main.c        ****     enable_actuator(1);
 1196              		.loc 1 363 0
 1197 0064 0120     		movs	r0, #1
 1198 0066 FFF7FEFF 		bl	enable_actuator
 1199              	.LVL266:
 364:main.c        ****     enable_actuator(2);
 1200              		.loc 1 364 0
 1201 006a 0220     		movs	r0, #2
 1202 006c FFF7FEFF 		bl	enable_actuator
 1203              	.LVL267:
 365:main.c        ****     enable_actuator(3);
 1204              		.loc 1 365 0
 1205 0070 0320     		movs	r0, #3
 1206 0072 FFF7FEFF 		bl	enable_actuator
 1207              	.LVL268:
 366:main.c        ****     enable_actuator(4);
 1208              		.loc 1 366 0
 1209 0076 0420     		movs	r0, #4
 1210 0078 FFF7FEFF 		bl	enable_actuator
 1211              	.LVL269:
 367:main.c        ****     enable_actuator(5);
 1212              		.loc 1 367 0
 1213 007c 0520     		movs	r0, #5
 1214 007e FFF7FEFF 		bl	enable_actuator
 1215              	.LVL270:
 368:main.c        ****     enable_actuator(6);
 1216              		.loc 1 368 0
 1217 0082 0620     		movs	r0, #6
 1218 0084 FFF7FEFF 		bl	enable_actuator
 1219              	.LVL271:
 358:main.c        ****     // Set the relays to retract
 1220              		.loc 1 358 0
 1221 0088 4FF0000A 		mov	r10, #0
 357:main.c        ****     CYBIT actuator_7_state = 0;
 1222              		.loc 1 357 0
 1223 008c D146     		mov	r9, r10
 356:main.c        ****     CYBIT actuator_6_state = 0;
ARM GAS  C:\Users\JANNET~1.WEH\AppData\Local\Temp\ccl8h6km.s 			page 29


 1224              		.loc 1 356 0
 1225 008e D046     		mov	r8, r10
 355:main.c        ****     CYBIT actuator_5_state = 0;
 1226              		.loc 1 355 0
 1227 0090 5746     		mov	r7, r10
 354:main.c        ****     CYBIT actuator_4_state = 0;
 1228              		.loc 1 354 0
 1229 0092 5646     		mov	r6, r10
 352:main.c        ****     CYBIT actuator_2_state = 0;
 1230              		.loc 1 352 0
 1231 0094 5546     		mov	r5, r10
 1232 0096 CDF81CA0 		str	r10, [sp, #28]
 1233 009a BB46     		mov	fp, r7
 1234              	.LVL272:
 1235              	.L119:
 369:main.c        ****     
 370:main.c        ****     
 371:main.c        ****     // Wait till all retract
 372:main.c        ****     while(1){ // TODO: add timeout instead of 1
 373:main.c        ****         update_actuator_position();
 1236              		.loc 1 373 0
 1237 009c FFF7FEFF 		bl	update_actuator_position
 1238              	.LVL273:
 374:main.c        ****         
 375:main.c        ****         if(fabs(actuator_1_last_position - get_actuator_position(0x00)) < (2 * encoder_tick)){
 1239              		.loc 1 375 0
 1240 00a0 0020     		movs	r0, #0
 1241 00a2 FFF7FEFF 		bl	get_actuator_position
 1242              	.LVL274:
 1243 00a6 FFF7FEFF 		bl	__aeabi_ui2f
 1244              	.LVL275:
 1245 00aa 0146     		mov	r1, r0
 1246 00ac 2046     		mov	r0, r4
 1247 00ae FFF7FEFF 		bl	__aeabi_fsub
 1248              	.LVL276:
 1249 00b2 20F00044 		bic	r4, r0, #-2147483648
 1250              	.LVL277:
 1251 00b6 864B     		ldr	r3, .L128
 1252 00b8 1868     		ldr	r0, [r3]	@ float
 1253 00ba 0146     		mov	r1, r0
 1254 00bc FFF7FEFF 		bl	__aeabi_fadd
 1255              	.LVL278:
 1256 00c0 0146     		mov	r1, r0
 1257 00c2 2046     		mov	r0, r4
 1258 00c4 FFF7FEFF 		bl	__aeabi_fcmplt
 1259              	.LVL279:
 1260 00c8 18B1     		cbz	r0, .L103
 376:main.c        ****             // Stop actuator 1
 377:main.c        ****             disable_actuator(0);
 1261              		.loc 1 377 0
 1262 00ca 0020     		movs	r0, #0
 1263 00cc FFF7FEFF 		bl	disable_actuator
 1264              	.LVL280:
 378:main.c        ****             actuator_1_state = 1;
 1265              		.loc 1 378 0
 1266 00d0 0125     		movs	r5, #1
 1267              	.LVL281:
ARM GAS  C:\Users\JANNET~1.WEH\AppData\Local\Temp\ccl8h6km.s 			page 30


 1268              	.L103:
 379:main.c        ****         }
 380:main.c        ****         
 381:main.c        ****          if(fabs(actuator_2_last_position - get_actuator_position(0x01)) < (2 * encoder_tick)){
 1269              		.loc 1 381 0
 1270 00d2 0120     		movs	r0, #1
 1271 00d4 FFF7FEFF 		bl	get_actuator_position
 1272              	.LVL282:
 1273 00d8 FFF7FEFF 		bl	__aeabi_ui2f
 1274              	.LVL283:
 1275 00dc 0146     		mov	r1, r0
 1276 00de 0198     		ldr	r0, [sp, #4]	@ float
 1277 00e0 FFF7FEFF 		bl	__aeabi_fsub
 1278              	.LVL284:
 1279 00e4 20F00044 		bic	r4, r0, #-2147483648
 1280 00e8 794B     		ldr	r3, .L128
 1281 00ea 1868     		ldr	r0, [r3]	@ float
 1282 00ec 0146     		mov	r1, r0
 1283 00ee FFF7FEFF 		bl	__aeabi_fadd
 1284              	.LVL285:
 1285 00f2 0146     		mov	r1, r0
 1286 00f4 2046     		mov	r0, r4
 1287 00f6 FFF7FEFF 		bl	__aeabi_fcmplt
 1288              	.LVL286:
 1289 00fa 18B1     		cbz	r0, .L105
 382:main.c        ****             // Stop actuator 2
 383:main.c        ****             disable_actuator(1);
 1290              		.loc 1 383 0
 1291 00fc 0120     		movs	r0, #1
 1292 00fe FFF7FEFF 		bl	disable_actuator
 1293              	.LVL287:
 384:main.c        ****             actuator_2_state = 1;
 1294              		.loc 1 384 0
 1295 0102 0126     		movs	r6, #1
 1296              	.LVL288:
 1297              	.L105:
 385:main.c        ****         }
 386:main.c        ****         
 387:main.c        ****          if(fabs(actuator_3_last_position - get_actuator_position(0x02)) < (2 * encoder_tick)){
 1298              		.loc 1 387 0
 1299 0104 0220     		movs	r0, #2
 1300 0106 FFF7FEFF 		bl	get_actuator_position
 1301              	.LVL289:
 1302 010a FFF7FEFF 		bl	__aeabi_ui2f
 1303              	.LVL290:
 1304 010e 0146     		mov	r1, r0
 1305 0110 0298     		ldr	r0, [sp, #8]	@ float
 1306 0112 FFF7FEFF 		bl	__aeabi_fsub
 1307              	.LVL291:
 1308 0116 20F00044 		bic	r4, r0, #-2147483648
 1309 011a 6D4B     		ldr	r3, .L128
 1310 011c 1868     		ldr	r0, [r3]	@ float
 1311 011e 0146     		mov	r1, r0
 1312 0120 FFF7FEFF 		bl	__aeabi_fadd
 1313              	.LVL292:
 1314 0124 0146     		mov	r1, r0
 1315 0126 2046     		mov	r0, r4
ARM GAS  C:\Users\JANNET~1.WEH\AppData\Local\Temp\ccl8h6km.s 			page 31


 1316 0128 FFF7FEFF 		bl	__aeabi_fcmplt
 1317              	.LVL293:
 1318 012c 18B1     		cbz	r0, .L107
 388:main.c        ****             // Stop actuator 3
 389:main.c        ****             disable_actuator(2);
 1319              		.loc 1 389 0
 1320 012e 0220     		movs	r0, #2
 1321 0130 FFF7FEFF 		bl	disable_actuator
 1322              	.LVL294:
 390:main.c        ****             actuator_3_state = 1;
 1323              		.loc 1 390 0
 1324 0134 0127     		movs	r7, #1
 1325              	.LVL295:
 1326              	.L107:
 391:main.c        ****         }
 392:main.c        ****         
 393:main.c        ****          if(fabs(actuator_4_last_position - get_actuator_position(0x03)) < (2 * encoder_tick)){
 1327              		.loc 1 393 0
 1328 0136 0320     		movs	r0, #3
 1329 0138 FFF7FEFF 		bl	get_actuator_position
 1330              	.LVL296:
 1331 013c FFF7FEFF 		bl	__aeabi_ui2f
 1332              	.LVL297:
 1333 0140 0146     		mov	r1, r0
 1334 0142 0398     		ldr	r0, [sp, #12]	@ float
 1335 0144 FFF7FEFF 		bl	__aeabi_fsub
 1336              	.LVL298:
 1337 0148 20F00044 		bic	r4, r0, #-2147483648
 1338 014c 604B     		ldr	r3, .L128
 1339 014e 1868     		ldr	r0, [r3]	@ float
 1340 0150 0146     		mov	r1, r0
 1341 0152 FFF7FEFF 		bl	__aeabi_fadd
 1342              	.LVL299:
 1343 0156 0146     		mov	r1, r0
 1344 0158 2046     		mov	r0, r4
 1345 015a FFF7FEFF 		bl	__aeabi_fcmplt
 1346              	.LVL300:
 1347 015e 20B1     		cbz	r0, .L109
 394:main.c        ****             // Stop actuator 4
 395:main.c        ****             disable_actuator(3);
 1348              		.loc 1 395 0
 1349 0160 0320     		movs	r0, #3
 1350 0162 FFF7FEFF 		bl	disable_actuator
 1351              	.LVL301:
 396:main.c        ****             actuator_4_state = 1;
 1352              		.loc 1 396 0
 1353 0166 4FF0010B 		mov	fp, #1
 1354              	.LVL302:
 1355              	.L109:
 397:main.c        ****         }
 398:main.c        ****         
 399:main.c        ****          if(fabs(actuator_5_last_position - get_actuator_position(0x04)) < (2 * encoder_tick)){
 1356              		.loc 1 399 0
 1357 016a 0420     		movs	r0, #4
 1358 016c FFF7FEFF 		bl	get_actuator_position
 1359              	.LVL303:
 1360 0170 FFF7FEFF 		bl	__aeabi_ui2f
ARM GAS  C:\Users\JANNET~1.WEH\AppData\Local\Temp\ccl8h6km.s 			page 32


 1361              	.LVL304:
 1362 0174 0146     		mov	r1, r0
 1363 0176 0498     		ldr	r0, [sp, #16]	@ float
 1364 0178 FFF7FEFF 		bl	__aeabi_fsub
 1365              	.LVL305:
 1366 017c 20F00044 		bic	r4, r0, #-2147483648
 1367 0180 534B     		ldr	r3, .L128
 1368 0182 1868     		ldr	r0, [r3]	@ float
 1369 0184 0146     		mov	r1, r0
 1370 0186 FFF7FEFF 		bl	__aeabi_fadd
 1371              	.LVL306:
 1372 018a 0146     		mov	r1, r0
 1373 018c 2046     		mov	r0, r4
 1374 018e FFF7FEFF 		bl	__aeabi_fcmplt
 1375              	.LVL307:
 1376 0192 20B1     		cbz	r0, .L111
 400:main.c        ****             // Stop actuator 5
 401:main.c        ****             disable_actuator(4);
 1377              		.loc 1 401 0
 1378 0194 0420     		movs	r0, #4
 1379 0196 FFF7FEFF 		bl	disable_actuator
 1380              	.LVL308:
 402:main.c        ****             actuator_5_state = 1;
 1381              		.loc 1 402 0
 1382 019a 4FF00108 		mov	r8, #1
 1383              	.LVL309:
 1384              	.L111:
 403:main.c        ****         }
 404:main.c        ****         
 405:main.c        ****          if(fabs(actuator_6_last_position - get_actuator_position(0x05)) < (2 * encoder_tick)){
 1385              		.loc 1 405 0
 1386 019e 0520     		movs	r0, #5
 1387 01a0 FFF7FEFF 		bl	get_actuator_position
 1388              	.LVL310:
 1389 01a4 FFF7FEFF 		bl	__aeabi_ui2f
 1390              	.LVL311:
 1391 01a8 0146     		mov	r1, r0
 1392 01aa 0598     		ldr	r0, [sp, #20]	@ float
 1393 01ac FFF7FEFF 		bl	__aeabi_fsub
 1394              	.LVL312:
 1395 01b0 20F00044 		bic	r4, r0, #-2147483648
 1396 01b4 464B     		ldr	r3, .L128
 1397 01b6 1868     		ldr	r0, [r3]	@ float
 1398 01b8 0146     		mov	r1, r0
 1399 01ba FFF7FEFF 		bl	__aeabi_fadd
 1400              	.LVL313:
 1401 01be 0146     		mov	r1, r0
 1402 01c0 2046     		mov	r0, r4
 1403 01c2 FFF7FEFF 		bl	__aeabi_fcmplt
 1404              	.LVL314:
 1405 01c6 20B1     		cbz	r0, .L113
 406:main.c        ****             // Stop actuator 6
 407:main.c        ****             disable_actuator(5);
 1406              		.loc 1 407 0
 1407 01c8 0520     		movs	r0, #5
 1408 01ca FFF7FEFF 		bl	disable_actuator
 1409              	.LVL315:
ARM GAS  C:\Users\JANNET~1.WEH\AppData\Local\Temp\ccl8h6km.s 			page 33


 408:main.c        ****             actuator_6_state = 1;
 1410              		.loc 1 408 0
 1411 01ce 4FF00109 		mov	r9, #1
 1412              	.LVL316:
 1413              	.L113:
 409:main.c        ****         }
 410:main.c        ****         
 411:main.c        ****          if(fabs(actuator_7_last_position - get_actuator_position(0x06)) < (2 * encoder_tick)){
 1414              		.loc 1 411 0
 1415 01d2 0620     		movs	r0, #6
 1416 01d4 FFF7FEFF 		bl	get_actuator_position
 1417              	.LVL317:
 1418 01d8 FFF7FEFF 		bl	__aeabi_ui2f
 1419              	.LVL318:
 1420 01dc 0146     		mov	r1, r0
 1421 01de 0698     		ldr	r0, [sp, #24]	@ float
 1422 01e0 FFF7FEFF 		bl	__aeabi_fsub
 1423              	.LVL319:
 1424 01e4 20F00044 		bic	r4, r0, #-2147483648
 1425 01e8 394B     		ldr	r3, .L128
 1426 01ea 1868     		ldr	r0, [r3]	@ float
 1427 01ec 0146     		mov	r1, r0
 1428 01ee FFF7FEFF 		bl	__aeabi_fadd
 1429              	.LVL320:
 1430 01f2 0146     		mov	r1, r0
 1431 01f4 2046     		mov	r0, r4
 1432 01f6 FFF7FEFF 		bl	__aeabi_fcmplt
 1433              	.LVL321:
 1434 01fa 20B1     		cbz	r0, .L115
 412:main.c        ****             // Stop actuator 7
 413:main.c        ****             disable_actuator(6);
 1435              		.loc 1 413 0
 1436 01fc 0620     		movs	r0, #6
 1437 01fe FFF7FEFF 		bl	disable_actuator
 1438              	.LVL322:
 414:main.c        ****             actuator_7_state = 1;
 1439              		.loc 1 414 0
 1440 0202 4FF0010A 		mov	r10, #1
 1441              	.LVL323:
 1442              	.L115:
 415:main.c        ****         }
 416:main.c        ****         if(actuator_1_state && actuator_2_state && actuator_3_state && actuator_4_state && actuator
 1443              		.loc 1 416 0
 1444 0206 6DB1     		cbz	r5, .L117
 1445              		.loc 1 416 0 is_stmt 0 discriminator 1
 1446 0208 66B1     		cbz	r6, .L117
 1447              		.loc 1 416 0 discriminator 2
 1448 020a 5FB1     		cbz	r7, .L117
 1449              		.loc 1 416 0 discriminator 3
 1450 020c BBF1000F 		cmp	fp, #0
 1451 0210 08D0     		beq	.L117
 1452              		.loc 1 416 0 discriminator 4
 1453 0212 B8F1000F 		cmp	r8, #0
 1454 0216 05D0     		beq	.L117
 1455              		.loc 1 416 0 discriminator 5
 1456 0218 B9F1000F 		cmp	r9, #0
 1457 021c 02D0     		beq	.L117
ARM GAS  C:\Users\JANNET~1.WEH\AppData\Local\Temp\ccl8h6km.s 			page 34


 1458              		.loc 1 416 0 discriminator 6
 1459 021e BAF1000F 		cmp	r10, #0
 1460 0222 3CD1     		bne	.L118
 1461              	.L117:
 417:main.c        ****             break;
 418:main.c        ****         }
 419:main.c        ****         
 420:main.c        ****         actuator_2_last_position = get_actuator_position(0x01);
 1462              		.loc 1 420 0 is_stmt 1
 1463 0224 0120     		movs	r0, #1
 1464 0226 FFF7FEFF 		bl	get_actuator_position
 1465              	.LVL324:
 421:main.c        ****         actuator_3_last_position = get_actuator_position(0x02);
 1466              		.loc 1 421 0
 1467 022a 0220     		movs	r0, #2
 1468 022c FFF7FEFF 		bl	get_actuator_position
 1469              	.LVL325:
 422:main.c        ****         actuator_4_last_position = get_actuator_position(0x03);
 1470              		.loc 1 422 0
 1471 0230 0320     		movs	r0, #3
 1472 0232 FFF7FEFF 		bl	get_actuator_position
 1473              	.LVL326:
 423:main.c        ****         actuator_5_last_position = get_actuator_position(0x04);
 1474              		.loc 1 423 0
 1475 0236 0420     		movs	r0, #4
 1476 0238 FFF7FEFF 		bl	get_actuator_position
 1477              	.LVL327:
 424:main.c        ****         actuator_6_last_position = get_actuator_position(0x05);
 1478              		.loc 1 424 0
 1479 023c 0520     		movs	r0, #5
 1480 023e FFF7FEFF 		bl	get_actuator_position
 1481              	.LVL328:
 425:main.c        ****         actuator_7_last_position = get_actuator_position(0x06);
 1482              		.loc 1 425 0
 1483 0242 0620     		movs	r0, #6
 1484 0244 FFF7FEFF 		bl	get_actuator_position
 1485              	.LVL329:
 426:main.c        ****         
 427:main.c        ****         actuator_1_last_position = get_actuator_position(0x00);
 1486              		.loc 1 427 0
 1487 0248 0020     		movs	r0, #0
 1488 024a FFF7FEFF 		bl	get_actuator_position
 1489              	.LVL330:
 1490 024e FFF7FEFF 		bl	__aeabi_ui2f
 1491              	.LVL331:
 1492 0252 0446     		mov	r4, r0
 1493              	.LVL332:
 428:main.c        ****         actuator_2_last_position = get_actuator_position(0x01);
 1494              		.loc 1 428 0
 1495 0254 0120     		movs	r0, #1
 1496              	.LVL333:
 1497 0256 FFF7FEFF 		bl	get_actuator_position
 1498              	.LVL334:
 1499 025a FFF7FEFF 		bl	__aeabi_ui2f
 1500              	.LVL335:
 1501 025e 0190     		str	r0, [sp, #4]	@ float
 1502              	.LVL336:
ARM GAS  C:\Users\JANNET~1.WEH\AppData\Local\Temp\ccl8h6km.s 			page 35


 429:main.c        ****         actuator_3_last_position = get_actuator_position(0x02);
 1503              		.loc 1 429 0
 1504 0260 0220     		movs	r0, #2
 1505              	.LVL337:
 1506 0262 FFF7FEFF 		bl	get_actuator_position
 1507              	.LVL338:
 1508 0266 FFF7FEFF 		bl	__aeabi_ui2f
 1509              	.LVL339:
 1510 026a 0290     		str	r0, [sp, #8]	@ float
 1511              	.LVL340:
 430:main.c        ****         actuator_4_last_position = get_actuator_position(0x03);
 1512              		.loc 1 430 0
 1513 026c 0320     		movs	r0, #3
 1514              	.LVL341:
 1515 026e FFF7FEFF 		bl	get_actuator_position
 1516              	.LVL342:
 1517 0272 FFF7FEFF 		bl	__aeabi_ui2f
 1518              	.LVL343:
 1519 0276 0390     		str	r0, [sp, #12]	@ float
 1520              	.LVL344:
 431:main.c        ****         actuator_5_last_position = get_actuator_position(0x04);
 1521              		.loc 1 431 0
 1522 0278 0420     		movs	r0, #4
 1523              	.LVL345:
 1524 027a FFF7FEFF 		bl	get_actuator_position
 1525              	.LVL346:
 1526 027e FFF7FEFF 		bl	__aeabi_ui2f
 1527              	.LVL347:
 1528 0282 0490     		str	r0, [sp, #16]	@ float
 1529              	.LVL348:
 432:main.c        ****         actuator_6_last_position = get_actuator_position(0x05);
 1530              		.loc 1 432 0
 1531 0284 0520     		movs	r0, #5
 1532              	.LVL349:
 1533 0286 FFF7FEFF 		bl	get_actuator_position
 1534              	.LVL350:
 1535 028a FFF7FEFF 		bl	__aeabi_ui2f
 1536              	.LVL351:
 1537 028e 0590     		str	r0, [sp, #20]	@ float
 1538              	.LVL352:
 433:main.c        ****         actuator_7_last_position = get_actuator_position(0x06);
 1539              		.loc 1 433 0
 1540 0290 0620     		movs	r0, #6
 1541              	.LVL353:
 1542 0292 FFF7FEFF 		bl	get_actuator_position
 1543              	.LVL354:
 1544 0296 FFF7FEFF 		bl	__aeabi_ui2f
 1545              	.LVL355:
 1546 029a 0690     		str	r0, [sp, #24]	@ float
 1547              	.LVL356:
 434:main.c        ****     }
 1548              		.loc 1 434 0
 1549 029c FEE6     		b	.L119
 1550              	.LVL357:
 1551              	.L118:
 435:main.c        ****     
 436:main.c        ****     // Set you home value
ARM GAS  C:\Users\JANNET~1.WEH\AppData\Local\Temp\ccl8h6km.s 			page 36


 437:main.c        ****     Encoder_1_WriteCounter(0x00000000);
 1552              		.loc 1 437 0
 1553 029e 0020     		movs	r0, #0
 1554 02a0 FFF7FEFF 		bl	Encoder_1_WriteCounter
 1555              	.LVL358:
 438:main.c        ****     Encoder_2_WriteCounter(0x00000000);
 1556              		.loc 1 438 0
 1557 02a4 0020     		movs	r0, #0
 1558 02a6 FFF7FEFF 		bl	Encoder_2_WriteCounter
 1559              	.LVL359:
 439:main.c        ****     Encoder_3_WriteCounter(0x00000000);
 1560              		.loc 1 439 0
 1561 02aa 0020     		movs	r0, #0
 1562 02ac FFF7FEFF 		bl	Encoder_3_WriteCounter
 1563              	.LVL360:
 440:main.c        ****     Encoder_4_WriteCounter(0x00000000);
 1564              		.loc 1 440 0
 1565 02b0 0020     		movs	r0, #0
 1566 02b2 FFF7FEFF 		bl	Encoder_4_WriteCounter
 1567              	.LVL361:
 441:main.c        ****     Encoder_5_WriteCounter(0x00000000);
 1568              		.loc 1 441 0
 1569 02b6 0020     		movs	r0, #0
 1570 02b8 FFF7FEFF 		bl	Encoder_5_WriteCounter
 1571              	.LVL362:
 442:main.c        ****     Encoder_6_WriteCounter(0x00000000);
 1572              		.loc 1 442 0
 1573 02bc 0020     		movs	r0, #0
 1574 02be FFF7FEFF 		bl	Encoder_6_WriteCounter
 1575              	.LVL363:
 443:main.c        ****     Encoder_7_WriteCounter(0x00000000);
 1576              		.loc 1 443 0
 1577 02c2 0020     		movs	r0, #0
 1578 02c4 FFF7FEFF 		bl	Encoder_7_WriteCounter
 1579              	.LVL364:
 444:main.c        **** }
 1580              		.loc 1 444 0
 1581 02c8 09B0     		add	sp, sp, #36
 1582              		.cfi_def_cfa_offset 36
 1583              		@ sp needed
 1584 02ca BDE8F08F 		pop	{r4, r5, r6, r7, r8, r9, r10, fp, pc}
 1585              	.LVL365:
 1586              	.L129:
 1587 02ce 00BF     		.align	2
 1588              	.L128:
 1589 02d0 00000000 		.word	.LANCHOR1
 1590              		.cfi_endproc
 1591              	.LFE72:
 1592              		.size	go_to_home, .-go_to_home
 1593              		.section	.text.main,"ax",%progbits
 1594              		.align	2
 1595              		.global	main
 1596              		.thumb
 1597              		.thumb_func
 1598              		.type	main, %function
 1599              	main:
 1600              	.LFB73:
ARM GAS  C:\Users\JANNET~1.WEH\AppData\Local\Temp\ccl8h6km.s 			page 37


 445:main.c        **** 
 446:main.c        **** 
 447:main.c        **** int main(void)
 448:main.c        **** {
 1601              		.loc 1 448 0
 1602              		.cfi_startproc
 1603              		@ args = 0, pretend = 0, frame = 0
 1604              		@ frame_needed = 0, uses_anonymous_args = 0
 1605 0000 10B5     		push	{r4, lr}
 1606              		.cfi_def_cfa_offset 8
 1607              		.cfi_offset 4, -8
 1608              		.cfi_offset 14, -4
 449:main.c        ****     CyGlobalIntEnable; /* Enable global interrupts. */
 1609              		.loc 1 449 0
 1610              		.syntax unified
 1611              	@ 449 "main.c" 1
 1612 0002 62B6     		CPSIE   i
 1613              	@ 0 "" 2
 450:main.c        ****     MyInst_Start();
 1614              		.loc 1 450 0
 1615              		.thumb
 1616              		.syntax unified
 1617 0004 FFF7FEFF 		bl	MyInst_Start
 1618              	.LVL366:
 1619              	.L135:
 451:main.c        ****     
 452:main.c        ****     for(;;){
 453:main.c        ****         sendI2Cbyte(0xFFFF);
 1620              		.loc 1 453 0
 1621 0008 4FF6FF70 		movw	r0, #65535
 1622 000c FFF7FEFF 		bl	sendI2Cbyte
 1623              	.LVL367:
 454:main.c        ****         CyDelay(1000);
 1624              		.loc 1 454 0
 1625 0010 4FF47A70 		mov	r0, #1000
 1626 0014 FFF7FEFF 		bl	CyDelay
 1627              	.LVL368:
 1628              	.LBB4:
 455:main.c        ****         for(int i = 1; i <= 16; i++){
 1629              		.loc 1 455 0
 1630 0018 0124     		movs	r4, #1
 1631 001a 08E0     		b	.L131
 1632              	.LVL369:
 1633              	.L132:
 456:main.c        ****             setRelayState(i, 1);
 1634              		.loc 1 456 0 discriminator 3
 1635 001c 0121     		movs	r1, #1
 1636 001e E0B2     		uxtb	r0, r4
 1637 0020 FFF7FEFF 		bl	setRelayState
 1638              	.LVL370:
 457:main.c        ****             CyDelay(1000);
 1639              		.loc 1 457 0 discriminator 3
 1640 0024 4FF47A70 		mov	r0, #1000
 1641 0028 FFF7FEFF 		bl	CyDelay
 1642              	.LVL371:
 455:main.c        ****         for(int i = 1; i <= 16; i++){
 1643              		.loc 1 455 0 discriminator 3
ARM GAS  C:\Users\JANNET~1.WEH\AppData\Local\Temp\ccl8h6km.s 			page 38


 1644 002c 0134     		adds	r4, r4, #1
 1645              	.LVL372:
 1646              	.L131:
 455:main.c        ****         for(int i = 1; i <= 16; i++){
 1647              		.loc 1 455 0 is_stmt 0 discriminator 1
 1648 002e 102C     		cmp	r4, #16
 1649 0030 F4DD     		ble	.L132
 1650 0032 0124     		movs	r4, #1
 1651              	.LVL373:
 1652 0034 08E0     		b	.L133
 1653              	.LVL374:
 1654              	.L134:
 1655              	.LBE4:
 1656              	.LBB5:
 458:main.c        ****         }
 459:main.c        ****         for(int i = 1; i <= 16; i++){
 460:main.c        ****             setRelayState(i, 0);
 1657              		.loc 1 460 0 is_stmt 1 discriminator 3
 1658 0036 0021     		movs	r1, #0
 1659 0038 E0B2     		uxtb	r0, r4
 1660 003a FFF7FEFF 		bl	setRelayState
 1661              	.LVL375:
 461:main.c        ****             CyDelay(1000);
 1662              		.loc 1 461 0 discriminator 3
 1663 003e 4FF47A70 		mov	r0, #1000
 1664 0042 FFF7FEFF 		bl	CyDelay
 1665              	.LVL376:
 459:main.c        ****             setRelayState(i, 0);
 1666              		.loc 1 459 0 discriminator 3
 1667 0046 0134     		adds	r4, r4, #1
 1668              	.LVL377:
 1669              	.L133:
 459:main.c        ****             setRelayState(i, 0);
 1670              		.loc 1 459 0 is_stmt 0 discriminator 1
 1671 0048 102C     		cmp	r4, #16
 1672 004a F4DD     		ble	.L134
 1673 004c DCE7     		b	.L135
 1674              	.LBE5:
 1675              		.cfi_endproc
 1676              	.LFE73:
 1677              		.size	main, .-main
 1678              		.global	encoder_tick
 1679              		.global	actuator_7_home_position
 1680              		.global	actuator_6_home_position
 1681              		.global	actuator_5_home_position
 1682              		.global	actuator_4_home_position
 1683              		.global	actuator_3_home_position
 1684              		.global	actuator_2_home_position
 1685              		.global	actuator_1_home_position
 1686              		.global	actuator_7_position
 1687              		.global	actuator_6_position
 1688              		.global	actuator_5_position
 1689              		.global	actuator_4_position
 1690              		.global	actuator_3_position
 1691              		.global	actuator_2_position
 1692              		.global	actuator_1_position
 1693              		.global	newCommand
ARM GAS  C:\Users\JANNET~1.WEH\AppData\Local\Temp\ccl8h6km.s 			page 39


 1694              		.global	command
 1695              		.global	relays_state
 1696 004e 00BF     		.data
 1697              		.align	2
 1698              		.set	.LANCHOR1,. + 0
 1699              		.type	encoder_tick, %object
 1700              		.size	encoder_tick, 4
 1701              	encoder_tick:
 1702 0000 F2D28D3E 		.word	1049481970
 1703              		.bss
 1704              		.align	2
 1705              		.set	.LANCHOR0,. + 0
 1706              		.type	relays_state, %object
 1707              		.size	relays_state, 2
 1708              	relays_state:
 1709 0000 0000     		.space	2
 1710 0002 0000     		.space	2
 1711              		.type	actuator_1_position, %object
 1712              		.size	actuator_1_position, 4
 1713              	actuator_1_position:
 1714 0004 00000000 		.space	4
 1715              		.type	actuator_2_position, %object
 1716              		.size	actuator_2_position, 4
 1717              	actuator_2_position:
 1718 0008 00000000 		.space	4
 1719              		.type	actuator_3_position, %object
 1720              		.size	actuator_3_position, 4
 1721              	actuator_3_position:
 1722 000c 00000000 		.space	4
 1723              		.type	actuator_4_position, %object
 1724              		.size	actuator_4_position, 4
 1725              	actuator_4_position:
 1726 0010 00000000 		.space	4
 1727              		.type	actuator_5_position, %object
 1728              		.size	actuator_5_position, 4
 1729              	actuator_5_position:
 1730 0014 00000000 		.space	4
 1731              		.type	actuator_6_position, %object
 1732              		.size	actuator_6_position, 4
 1733              	actuator_6_position:
 1734 0018 00000000 		.space	4
 1735              		.type	actuator_7_position, %object
 1736              		.size	actuator_7_position, 4
 1737              	actuator_7_position:
 1738 001c 00000000 		.space	4
 1739              		.type	newCommand, %object
 1740              		.size	newCommand, 1
 1741              	newCommand:
 1742 0020 00       		.space	1
 1743              		.type	command, %object
 1744              		.size	command, 1
 1745              	command:
 1746 0021 00       		.space	1
 1747 0022 0000     		.space	2
 1748              		.type	actuator_7_home_position, %object
 1749              		.size	actuator_7_home_position, 4
 1750              	actuator_7_home_position:
ARM GAS  C:\Users\JANNET~1.WEH\AppData\Local\Temp\ccl8h6km.s 			page 40


 1751 0024 00000000 		.space	4
 1752              		.type	actuator_6_home_position, %object
 1753              		.size	actuator_6_home_position, 4
 1754              	actuator_6_home_position:
 1755 0028 00000000 		.space	4
 1756              		.type	actuator_5_home_position, %object
 1757              		.size	actuator_5_home_position, 4
 1758              	actuator_5_home_position:
 1759 002c 00000000 		.space	4
 1760              		.type	actuator_4_home_position, %object
 1761              		.size	actuator_4_home_position, 4
 1762              	actuator_4_home_position:
 1763 0030 00000000 		.space	4
 1764              		.type	actuator_3_home_position, %object
 1765              		.size	actuator_3_home_position, 4
 1766              	actuator_3_home_position:
 1767 0034 00000000 		.space	4
 1768              		.type	actuator_2_home_position, %object
 1769              		.size	actuator_2_home_position, 4
 1770              	actuator_2_home_position:
 1771 0038 00000000 		.space	4
 1772              		.type	actuator_1_home_position, %object
 1773              		.size	actuator_1_home_position, 4
 1774              	actuator_1_home_position:
 1775 003c 00000000 		.space	4
 1776              		.text
 1777              	.Letext0:
 1778              		.file 2 "c:\\program files (x86)\\cypress\\psoc creator\\4.4\\psoc creator\\import\\gnu\\arm\\5.4.
 1779              		.file 3 "c:\\program files (x86)\\cypress\\psoc creator\\4.4\\psoc creator\\import\\gnu\\arm\\5.4.
 1780              		.file 4 "Generated_Source\\PSoC5/cytypes.h"
 1781              		.file 5 "Generated_Source\\PSoC5/core_cm3.h"
 1782              		.file 6 "Generated_Source\\PSoC5/Encoder_1.h"
 1783              		.file 7 "Generated_Source\\PSoC5/Encoder_2.h"
 1784              		.file 8 "Generated_Source\\PSoC5/Encoder_3.h"
 1785              		.file 9 "Generated_Source\\PSoC5/Encoder_4.h"
 1786              		.file 10 "Generated_Source\\PSoC5/Encoder_5.h"
 1787              		.file 11 "Generated_Source\\PSoC5/Encoder_6.h"
 1788              		.file 12 "Generated_Source\\PSoC5/Encoder_7.h"
 1789              		.file 13 "Generated_Source\\PSoC5/I2C_1.h"
 1790              		.file 14 "Generated_Source\\PSoC5/UART_1.h"
 1791              		.file 15 "Generated_Source\\PSoC5/CyLib.h"